(dp0
(S'PA'
p1
S'Family Medicine'
p2
tp3
I2733
s(S'MI'
p4
S'Physician Assistant'
p5
tp6
I1313
s(S'NY'
p7
S'Emergency Medicine'
p8
tp9
I1335
s(S'OH'
p10
S'Anesthesiology'
p11
tp12
I812
s(S'OH'
p13
g5
tp14
I670
s(S'WI'
p15
g8
tp16
I427
s(S'NC'
p17
S'Radiology'
p18
tp19
I590
s(S'NC'
p20
S'Internal Medicine'
p21
tp22
I3123
s(S'MA'
p23
S'Anesthesiology'
p24
tp25
I658
s(S'IL'
p26
g11
tp27
I836
s(S'IL'
p28
g8
tp29
I1006
s(S'MI'
p30
S'Radiology'
p31
tp32
I703
s(S'VA'
p33
g2
tp34
I1405
s(S'NC'
p35
g8
tp36
I683
s(S'WI'
p37
g2
tp38
I1444
s(S'VA'
p39
g11
tp40
I494
s(S'VA'
p41
S'Nurse Practitioner'
p42
tp43
I815
s(S'NC'
p44
g11
tp45
I521
s(S'PA'
p46
S'Physician Assistant'
p47
tp48
I1593
s(S'MA'
p49
S'Nurse Practitioner'
p50
tp51
I1397
s(S'IL'
p52
S'Radiology'
p53
tp54
I802
s(S'NJ'
p55
g42
tp56
I564
s(S'NY'
p57
S'Radiology'
p58
tp59
I1553
s(S'OH'
p60
g2
tp61
I2233
s(S'NY'
p62
g11
tp63
I1788
s(S'NY'
p64
S'Nurse Practitioner'
p65
tp66
I2065
s(S'VA'
p67
g18
tp68
I486
s(S'PA'
p69
S'Nurse Practitioner'
p70
tp71
I1241
s(S'VA'
p72
g21
tp73
I2348
s(S'NJ'
p74
S'Physician Assistant'
p75
tp76
I390
s(S'WI'
p77
S'Internal Medicine'
p78
tp79
I1691
s(S'MA'
p80
g8
tp81
I597
s(S'VA'
p82
g5
tp83
I569
s(S'IL'
p84
g5
tp85
I841
s(S'NC'
p86
g2
tp87
I1817
s(S'MI'
p88
g8
tp89
I901
s(S'MI'
p90
g11
tp91
I627
s(S'OH'
p92
S'Emergency Medicine'
p93
tp94
I969
s(S'MA'
p95
g75
tp96
I662
s(S'WI'
p97
g47
tp98
I808
s(S'NC'
p99
g42
tp100
I1101
s(S'NJ'
p101
g11
tp102
I685
s(S'MA'
p103
g31
tp104
I685
s(S'VA'
p105
g8
tp106
I564
s(S'PA'
p107
S'Internal Medicine'
p108
tp109
I4874
s(S'OH'
p110
S'Internal Medicine'
p111
tp112
I3853
s(S'NY'
p113
g47
tp114
I2084
s(S'WI'
p115
g50
tp116
I902
s(S'MI'
p117
S'Nurse Practitioner'
p118
tp119
I867
s(S'MA'
p120
S'Internal Medicine'
p121
tp122
I4135
s(S'NJ'
p123
g8
tp124
I522
s(S'OH'
p125
g31
tp126
I834
s(S'IL'
p127
S'Internal Medicine'
p128
tp129
I4538
s(S'MI'
p130
g108
tp131
I3495
s(S'NJ'
p132
g2
tp133
I999
s(S'PA'
p134
g8
tp135
I1089
s(S'NY'
p136
S'Internal Medicine'
p137
tp138
I8818
s(S'IL'
p139
g65
tp140
I983
s(S'WI'
p141
g11
tp142
I448
s(S'NY'
p143
g2
tp144
I2074
s(S'NJ'
p145
g21
tp146
I3660
s(S'MI'
p147
g2
tp148
I2104
s(S'IL'
p149
g2
tp150
I2202
s(S'PA'
p151
g11
tp152
I943
s(S'NC'
p153
g5
tp154
I1450
s(S'WI'
p155
g31
tp156
I453
s(S'MA'
p157
g2
tp158
I815
s(S'OH'
p159
g65
tp160
I1258
s(S'NJ'
p161
g31
tp162
I569
s(S'PA'
p163
g31
tp164
I1027
s.