(dp0
S'204R00000X'
p1
(S'Electrodiagnostic Medicine'
p2
S''
p3
tp4
sS'261QP2300X'
p5
(S'Clinic/Center'
p6
S'Primary Care'
p7
tp8
sS'2251E1200X'
p9
(S'Physical Therapist'
p10
S'Ergonomics'
p11
tp12
sS'320700000X'
p13
(S'Residential Treatment Facility, Physical Disabilities'
p14
g3
tp15
sS'207RB0002X'
p16
(S'Internal Medicine'
p17
S'Bariatric Medicine'
p18
tp19
sS'332G00000X'
p20
(S'Eye Bank'
p21
g3
tp22
sS'246X00000X'
p23
(S'Spec/Tech, Cardiovascular'
p24
g3
tp25
sS'246YC3302X'
p26
(S'Spec/Tech, Health Info'
p27
S'Coding Specialist, Physician Office Based'
p28
tp29
sS'261QR0405X'
p30
(S'Clinic/Center'
p31
S'Rehabilitation, Substance Use Disorder'
p32
tp33
sS'103TC0700X'
p34
(S'Psychologist'
p35
S'Clinical'
p36
tp37
sS'163WC0400X'
p38
(S'Registered Nurse'
p39
S'Case Management'
p40
tp41
sS'364SL0600X'
p42
(S'Clinical Nurse Specialist'
p43
S'Long-Term Care'
p44
tp45
sS'111NN1001X'
p46
(S'Chiropractor'
p47
S'Nutrition'
p48
tp49
sS'163WR0400X'
p50
(S'Registered Nurse'
p51
S'Rehabilitation'
p52
tp53
sS'261QC0050X'
p54
(S'Clinic/Center'
p55
S'Critical Access Hospital'
p56
tp57
sS'103TA0400X'
p58
(S'Psychologist'
p59
S'Addiction (Substance Use Disorder)'
p60
tp61
sS'225XE0001X'
p62
(S'Occupational Therapist'
p63
S'Environmental Modification'
p64
tp65
sS'2080T0002X'
p66
(S'Pediatrics'
p67
S'Medical Toxicology'
p68
tp69
sS'282E00000X'
p70
(S'Long Term Care Hospital'
p71
g3
tp72
sS'246ZA2600X'
p73
(S'Specialist/Technologist, Other'
p74
S'Art, Medical'
p75
tp76
sS'261QP3300X'
p77
(S'Clinic/Center'
p78
S'Pain'
p79
tp80
sS'207YX0905X'
p81
(S'Otolaryngology'
p82
S'Otolaryngology/Facial Plastic Surgery'
p83
tp84
sS'103TW0100X'
p85
(S'Psychologist'
p86
S'Women'
p87
tp88
sS'317400000X'
p89
(S'Christian Science Facility'
p90
g3
tp91
sS'385H00000X'
p92
(S'Respite Care'
p93
g3
tp94
sS'156FX1800X'
p95
(S'Technician/Technologist'
p96
S'Optician'
p97
tp98
sS'332BP3500X'
p99
(S'Durable Medical Equipment & Medical Supplies'
p100
S'Parenteral & Enteral Nutrition'
p101
tp102
sS'2279P1006X'
p103
(S'Respiratory Therapist, Registered'
p104
S'Pulmonary Function Technologist'
p105
tp106
sS'363LF0000X'
p107
(S'Nurse Practitioner'
p108
S'Family'
p109
tp110
sS'208VP0014X'
p111
(S'Pain Medicine'
p112
S'Interventional Pain Medicine'
p113
tp114
sS'2083X0100X'
p115
(S'Preventive Medicine'
p116
S'Occupational Medicine'
p117
tp118
sS'3336C0003X'
p119
(S'Pharmacy'
p120
S'Community/Retail Pharmacy'
p121
tp122
sS'261QC1800X'
p123
(S'Clinic/Center'
p124
S'Corporate Health'
p125
tp126
sS'246XC2901X'
p127
(S'Spec/Tech, Cardiovascular'
p128
S'Cardiovascular Invasive Specialist'
p129
tp130
sS'310400000X'
p131
(S'Assisted Living Facility'
p132
g3
tp133
sS'261QM1100X'
p134
(S'Clinic/Center'
p135
S'Military/U.S. Coast Guard Outpatient'
p136
tp137
sS'208600000X'
p138
(S'Surgery'
p139
g3
tp140
sS'261QH0100X'
p141
(S'Clinic/Center'
p142
S'Health Service'
p143
tp144
sS'261QR0207X'
p145
(S'Clinic/Center'
p146
S'Radiology, Mobile Mammography'
p147
tp148
sS'102X00000X'
p149
(S'Poetry Therapist'
p150
g3
tp151
sS'207SC0300X'
p152
(S'Medical Genetics'
p153
S'Clinical Cytogenetic'
p154
tp155
sS'163WG0100X'
p156
(S'Registered Nurse'
p157
S'Gastroenterology'
p158
tp159
sS'2085R0203X'
p160
(S'Radiology'
p161
S'Therapeutic Radiology'
p162
tp163
sS'163WU0100X'
p164
(S'Registered Nurse'
p165
S'Urology'
p166
tp167
sS'171R00000X'
p168
(S'Interpreter'
p169
g3
tp170
sS'235500000X'
p171
(S'Specialist/Technologist'
p172
g3
tp173
sS'207RT0003X'
p174
(S'Internal Medicine'
p175
S'Transplant Hepatology'
p176
tp177
sS'225B00000X'
p178
(S'Pulmonary Function Technologist'
p179
g3
tp180
sS'156FX1201X'
p181
(S'Technician/Technologist'
p182
S'Optometric Assistant'
p183
tp184
sS'163WW0000X'
p185
(S'Registered Nurse'
p186
S'Wound Care'
p187
tp188
sS'211D00000X'
p189
(S'Assistant, Podiatric'
p190
g3
tp191
sS'310500000X'
p192
(S'Intermediate Care Facility, Mental Illness'
p193
g3
tp194
sS'2255A2300X'
p195
(S'Specialist/Technologist'
p196
S'Athletic Trainer'
p197
tp198
sS'106H00000X'
p199
(S'Marriage & Family Therapist'
p200
g3
tp201
sS'207PP0204X'
p202
(S'Emergency Medicine'
p203
S'Pediatric Emergency Medicine'
p204
tp205
sS'171100000X'
p206
(S'Acupuncturist'
p207
g3
tp208
sS'261QA0600X'
p209
(S'Clinic/Center'
p210
S'Adult Day Care'
p211
tp212
sS'341600000X'
p213
(S'Ambulance'
p214
g3
tp215
sS'2086S0122X'
p216
(S'Surgery'
p217
S'Plastic and Reconstructive Surgery'
p218
tp219
sS'225800000X'
p220
(S'Recreation Therapist'
p221
g3
tp222
sS'207LC0200X'
p223
(S'Anesthesiology'
p224
S'Critical Care Medicine'
p225
tp226
sS'331L00000X'
p227
(S'Blood Bank'
p228
g3
tp229
sS'163WE0003X'
p230
(S'Registered Nurse'
p231
S'Emergency'
p232
tp233
sS'246ZE0500X'
p234
(S'Specialist/Technologist, Other'
p235
S'EEG'
p236
tp237
sS'2085P0229X'
p238
(S'Radiology'
p239
S'Pediatric Radiology'
p240
tp241
sS'163WN0300X'
p242
(S'Registered Nurse'
p243
S'Nephrology'
p244
tp245
sS'261QR1100X'
p246
(S'Clinic/Center'
p247
S'Research'
p248
tp249
sS'246QI0000X'
p250
(S'Spec/Tech, Pathology'
p251
S'Immunology'
p252
tp253
sS'152WS0006X'
p254
(S'Optometrist'
p255
S'Sports Vision'
p256
tp257
sS'103TA0700X'
p258
(S'Psychologist'
p259
S'Adult Development & Aging'
p260
tp261
sS'275N00000X'
p262
(S'Medicare Defined Swing Bed Unit'
p263
g3
tp264
sS'320900000X'
p265
(S'Community Based Residential Treatment, Mental Retardation and/or Developmental Disabilities'
p266
g3
tp267
sS'2279P3900X'
p268
(S'Respiratory Therapist, Registered'
p269
S'Neonatal/Pediatrics'
p270
tp271
sS'213ES0000X'
p272
(S'Podiatrist'
p273
S'Sports Medicine'
p274
tp275
sS'363LA2200X'
p276
(S'Nurse Practitioner'
p277
S'Adult Health'
p278
tp279
sS'1835P1200X'
p280
(S'Pharmacist'
p281
S'Pharmacotherapy'
p282
tp283
sS'207UN0902X'
p284
(S'Nuclear Medicine'
p285
S'Nuclear Imaging & Therapy'
p286
tp287
sS'363AS0400X'
p288
(S'Physician Assistant'
p289
S'Surgical'
p290
tp291
sS'193200000X'
p292
(S'Multi-Specialty'
p293
g3
tp294
sS'111N00000X'
p295
(S'Chiropractor'
p296
g3
tp297
sS'2471C3402X'
p298
(S'Radiologic Technologist'
p299
S'Radiography'
p300
tp301
sS'207RH0003X'
p302
(S'Internal Medicine'
p303
S'Hematology & Oncology'
p304
tp305
sS'246ZG0701X'
p306
(S'Specialist/Technologist, Other'
p307
S'Graphics Methods'
p308
tp309
sS'344800000X'
p310
(S'Air Carrier'
p311
g3
tp312
sS'213E00000X'
p313
(S'Podiatrist'
p314
g3
tp315
sS'320600000X'
p316
(S'Residential Treatment Facility, Mental Retardation and/or Developmental Disabilities'
p317
g3
tp318
sS'3104A0630X'
p319
(S'Assisted Living Facility'
p320
S'Assisted Living, Behavioral Disturbances'
p321
tp322
sS'171W00000X'
p323
(S'Contractor'
p324
g3
tp325
sS'2080A0000X'
p326
(S'Pediatrics'
p327
S'Adolescent Medicine'
p328
tp329
sS'225XH1300X'
p330
(S'Occupational Therapist'
p331
S'Human Factors'
p332
tp333
sS'335E00000X'
p334
(S'Prosthetic/Orthotic Supplier'
p335
g3
tp336
sS'261QA0006X'
p337
(S'Clinic/Center'
p338
S'Ambulatory Fertility Facility'
p339
tp340
sS'163WM0705X'
p341
(S'Registered Nurse'
p342
S'Medical-Surgical'
p343
tp344
sS'367H00000X'
p345
(S'Anesthesiologist Assistant'
p346
g3
tp347
sS'207Q00000X'
p348
(S'Family Medicine'
p349
g3
tp350
sS'261QR1300X'
p351
(S'Clinic/Center'
p352
S'Rural Health'
p353
tp354
sS'2471V0106X'
p355
(S'Radiologic Technologist'
p356
S'Vascular-Interventional Technology'
p357
tp358
sS'3336L0003X'
p359
(S'Pharmacy'
p360
S'Long Term Care Pharmacy'
p361
tp362
sS'207ZP0101X'
p363
(S'Pathology'
p364
S'Anatomic Pathology'
p365
tp366
sS'207QA0401X'
p367
(S'Family Medicine'
p368
S'Addiction Medicine'
p369
tp370
sS'163WX0106X'
p371
(S'Registered Nurse'
p372
S'Occupational Health'
p373
tp374
sS'133N00000X'
p375
(S'Nutritionist'
p376
g3
tp377
sS'376K00000X'
p378
(S"Nurse's Aide"
p379
g3
tp380
sS'2279G0305X'
p381
(S'Respiratory Therapist, Registered'
p382
S'Geriatric Care'
p383
tp384
sS'363LG0600X'
p385
(S'Nurse Practitioner'
p386
S'Gerontology'
p387
tp388
sS'2278G0305X'
p389
(S'Respiratory Therapist, Certified'
p390
S'Geriatric Care'
p391
tp392
sS'261QR0800X'
p393
(S'Clinic/Center'
p394
S'Recovery Care'
p395
tp396
sS'2084F0202X'
p397
(S'Psychiatry & Neurology'
p398
S'Forensic Psychiatry'
p399
tp400
sS'207SG0205X'
p401
(S'Medical Genetics'
p402
S'Ph.D. Medical Genetics'
p403
tp404
sS'207RI0001X'
p405
(S'Internal Medicine'
p406
S'Clinical & Laboratory Immunology'
p407
tp408
sS'2084P0005X'
p409
(S'Psychiatry & Neurology'
p410
S'Neurodevelopmental Disabilities'
p411
tp412
sS'2083P0901X'
p413
(S'Preventive Medicine'
p414
S'Public Health & General Preventive Medicine'
p415
tp416
sS'156FX1700X'
p417
(S'Technician/Technologist'
p418
S'Ocularist'
p419
tp420
sS'103TF0200X'
p421
(S'Psychologist'
p422
S'Forensic'
p423
tp424
sS'246QC1000X'
p425
(S'Spec/Tech, Pathology'
p426
S'Chemistry'
p427
tp428
sS'2278E0002X'
p429
(S'Respiratory Therapist, Certified'
p430
S'Emergency Care'
p431
tp432
sS'171M00000X'
p433
(S'Case Manager/Care Coordinator'
p434
g3
tp435
sS'242T00000X'
p436
(S'Perfusionist'
p437
g3
tp438
sS'229N00000X'
p439
(S'Anaplastologist'
p440
g3
tp441
sS'170300000X'
p442
(S'Genetic Counselor, MS'
p443
g3
tp444
sS'163WN0003X'
p445
(S'Registered Nurse'
p446
S'Neonatal, Low-Risk'
p447
tp448
sS'1223S0112X'
p449
(S'Dentist'
p450
S'Oral and Maxillofacial Surgery'
p451
tp452
sS'363LA2100X'
p453
(S'Nurse Practitioner'
p454
S'Acute Care'
p455
tp456
sS'364SS0200X'
p457
(S'Clinical Nurse Specialist'
p458
S'School'
p459
tp460
sS'193400000X'
p461
(S'Single Specialty'
p462
g3
tp463
sS'286500000X'
p464
(S'Military Hospital'
p465
g3
tp466
sS'364SC2300X'
p467
(S'Clinical Nurse Specialist'
p468
S'Chronic Care'
p469
tp470
sS'2251N0400X'
p471
(S'Physical Therapist'
p472
S'Neurology'
p473
tp474
sS'1223X0008X'
p475
(S'Dentist'
p476
S'Oral and Maxillofacial Radiology'
p477
tp478
sS'287300000X'
p479
(S'Christian Science Sanitorium'
p480
g3
tp481
sS'207LH0002X'
p482
(S'Anesthesiology'
p483
S'Hospice and Palliative Medicine'
p484
tp485
sS'246ZB0302X'
p486
(S'Specialist/Technologist, Other'
p487
S'Biomedical Photographer'
p488
tp489
sS'2083T0002X'
p490
(S'Preventive Medicine'
p491
S'Medical Toxicology'
p492
tp493
sS'207RI0011X'
p494
(S'Internal Medicine'
p495
S'Interventional Cardiology'
p496
tp497
sS'2086S0127X'
p498
(S'Surgery'
p499
S'Trauma Surgery'
p500
tp501
sS'2084P0804X'
p502
(S'Psychiatry & Neurology'
p503
S'Child & Adolescent Psychiatry'
p504
tp505
sS'246ZS0400X'
p506
(S'Specialist/Technologist, Other'
p507
S'Surgical'
p508
tp509
sS'163WC1500X'
p510
(S'Registered Nurse'
p511
S'Community Health'
p512
tp513
sS'213ES0131X'
p514
(S'Podiatrist'
p515
S'Foot Surgery'
p516
tp517
sS'2471M2300X'
p518
(S'Radiologic Technologist'
p519
S'Mammography'
p520
tp521
sS'261QM1101X'
p522
(S'Clinic/Center'
p523
S'Military and U.S. Coast Guard Ambulatory Procedure'
p524
tp525
sS'2471Q0001X'
p526
(S'Radiologic Technologist'
p527
S'Quality Management'
p528
tp529
sS'364SE1400X'
p530
(S'Clinical Nurse Specialist'
p531
S'Ethics'
p532
tp533
sS'2085H0002X'
p534
(S'Radiology'
p535
S'Hospice and Palliative Medicine'
p536
tp537
sS'253Z00000X'
p538
(S'In Home Supportive Care'
p539
g3
tp540
sS'363A00000X'
p541
(S'Physician Assistant'
p542
g3
tp543
sS'2081P0004X'
p544
(S'Physical Medicine & Rehabilitation'
p545
S'Spinal Cord Injury Medicine'
p546
tp547
sS'227900000X'
p548
(S'Respiratory Therapist, Registered'
p549
g3
tp550
sS'2080P0202X'
p551
(S'Pediatrics'
p552
S'Pediatric Cardiology'
p553
tp554
sS'247100000X'
p555
(S'Radiologic Technologist'
p556
g3
tp557
sS'261QM0850X'
p558
(S'Clinic/Center'
p559
S'Adult Mental Health'
p560
tp561
sS'207R00000X'
p562
(S'Internal Medicine'
p563
g3
tp564
sS'364SN0800X'
p565
(S'Clinical Nurse Specialist'
p566
S'Neuroscience'
p567
tp568
sS'261QA0005X'
p569
(S'Clinic/Center'
p570
S'Ambulatory Family Planning Facility'
p571
tp572
sS'2083P0500X'
p573
(S'Preventive Medicine'
p574
S'Preventive Medicine/Occupational Environmental Medicine'
p575
tp576
sS'2083P0011X'
p577
(S'Preventive Medicine'
p578
S'Undersea and Hyperbaric Medicine'
p579
tp580
sS'2083A0100X'
p581
(S'Preventive Medicine'
p582
S'Aerospace Medicine'
p583
tp584
sS'2080C0008X'
p585
(S'Pediatrics'
p586
S'Child Abuse Pediatrics'
p587
tp588
sS'207XS0117X'
p589
(S'Orthopaedic Surgery'
p590
S'Orthopaedic Surgery of the Spine'
p591
tp592
sS'204D00000X'
p593
(S'Neuromusculoskeletal Medicine & OMM'
p594
g3
tp595
sS'253J00000X'
p596
(S'Foster Care Agency'
p597
g3
tp598
sS'225XN1300X'
p599
(S'Occupational Therapist'
p600
S'Neurorehabilitation'
p601
tp602
sS'252Y00000X'
p603
(S'Early Intervention Provider Agency'
p604
g3
tp605
sS'3336N0007X'
p606
(S'Pharmacy'
p607
S'Nuclear Pharmacy'
p608
tp609
sS'207NS0135X'
p610
(S'Dermatology'
p611
S'Procedural Dermatology'
p612
tp613
sS'363LX0106X'
p614
(S'Nurse Practitioner'
p615
S'Occupational Health'
p616
tp617
sS'282J00000X'
p618
(S'Religious Nonmedical Health Care Institution'
p619
g3
tp620
sS'364ST0500X'
p621
(S'Clinical Nurse Specialist'
p622
S'Transplantation'
p623
tp624
sS'282NC2000X'
p625
(S'General Acute Care Hospital'
p626
S'Children'
p627
tp628
sS'335G00000X'
p629
(S'Medical Foods Supplier'
p630
g3
tp631
sS'225CA2400X'
p632
(S'Rehabilitation Counselor'
p633
S'Assistive Technology Practitioner'
p634
tp635
sS'261QL0400X'
p636
(S'Clinic/Center'
p637
S'Lithotripsy'
p638
tp639
sS'363LW0102X'
p640
(S'Nurse Practitioner'
p641
S"Women's Health"
p642
tp643
sS'163WP0809X'
p644
(S'Registered Nurse'
p645
S'Psych/Mental Health, Adult'
p646
tp647
sS'261QP0904X'
p648
(S'Clinic/Center'
p649
S'Public Health, Federal'
p650
tp651
sS'207RE0101X'
p652
(S'Internal Medicine'
p653
S'Endocrinology, Diabetes & Metabolism'
p654
tp655
sS'332S00000X'
p656
(S'Hearing  Aid Equipment'
p657
g3
tp658
sS'173F00000X'
p659
(S'Sleep Specialist, PhD'
p660
g3
tp661
sS'2471V0105X'
p662
(S'Radiologic Technologist'
p663
S'Vascular Sonography'
p664
tp665
sS'208VP0000X'
p666
(S'Pain Medicine'
p667
S'Pain Medicine'
p668
tp669
sS'2251H1200X'
p670
(S'Physical Therapist'
p671
S'Hand'
p672
tp673
sS'261QR0400X'
p674
(S'Clinic/Center'
p675
S'Rehabilitation'
p676
tp677
sS'225200000X'
p678
(S'Physical Therapy Assistant'
p679
g3
tp680
sS'332BX2000X'
p681
(S'Durable Medical Equipment & Medical Supplies'
p682
S'Oxygen Equipment & Supplies'
p683
tp684
sS'322D00000X'
p685
(S'Residential Treatment Facility, Emotionally Disturbed Children'
p686
g3
tp687
sS'324500000X'
p688
(S'Substance Abuse Rehabilitation Facility'
p689
g3
tp690
sS'163WD0400X'
p691
(S'Registered Nurse'
p692
S'Diabetes Educator'
p693
tp694
sS'261QR0401X'
p695
(S'Clinic/Center'
p696
S'Rehabilitation, Comprehensive Outpatient Rehabilitation Facility (CORF)'
p697
tp698
sS'111NR0400X'
p699
(S'Chiropractor'
p700
S'Rehabilitation'
p701
tp702
sS'261QA1903X'
p703
(S'Clinic/Center'
p704
S'Ambulatory Surgical'
p705
tp706
sS'363LP1700X'
p707
(S'Nurse Practitioner'
p708
S'Perinatal'
p709
tp710
sS'1710I1002X'
p711
(S'Military Health Care Provider'
p712
S'Independent Duty Corpsman'
p713
tp714
sS'261QM3000X'
p715
(S'Clinic/Center'
p716
S'Medically Fragile Intants and Children Day Care'
p717
tp718
sS'276400000X'
p719
(S'Rehabilitation, Substance Use Disorder Unit'
p720
g3
tp721
sS'251K00000X'
p722
(S'Public Health or Welfare'
p723
g3
tp724
sS'376G00000X'
p725
(S'Nursing Home Administrator'
p726
g3
tp727
sS'207VC0200X'
p728
(S'Obstetrics & Gynecology'
p729
S'Critical Care Medicine'
p730
tp731
sS'251S00000X'
p732
(S'Community/Behavioral Health'
p733
g3
tp734
sS'363AM0700X'
p735
(S'Physician Assistant'
p736
S'Medical'
p737
tp738
sS'204F00000X'
p739
(S'Transplant Surgery'
p740
g3
tp741
sS'156FX1202X'
p742
(S'Technician/Technologist'
p743
S'Optometric Technician'
p744
tp745
sS'247000000X'
p746
(S'Technician, Health Information'
p747
g3
tp748
sS'171000000X'
p749
(S'Military Health Care Provider'
p750
g3
tp751
sS'3747A0650X'
p752
(S'Technician'
p753
S'Attendant Care Provider'
p754
tp755
sS'246ZN0300X'
p756
(S'Specialist/Technologist, Other'
p757
S'Nephrology'
p758
tp759
sS'2088P0231X'
p760
(S'Urology'
p761
S'Pediatric Urology'
p762
tp763
sS'261QS0112X'
p764
(S'Clinic/Center'
p765
S'Oral and Maxillofacial Surgery'
p766
tp767
sS'111NX0800X'
p768
(S'Chiropractor'
p769
S'Orthopedic'
p770
tp771
sS'364SP0813X'
p772
(S'Clinical Nurse Specialist'
p773
S'Psych/Mental Health, Geropsychiatric'
p774
tp775
sS'1744R1103X'
p776
(S'Specialist'
p777
S'Research Data Abstracter/Coder'
p778
tp779
sS'146M00000X'
p780
(S'Emergency Medical Technician, Intermediate'
p781
g3
tp782
sS'261QS0132X'
p783
(S'Clinic/Center'
p784
S'Ophthalmologic Surgery'
p785
tp786
sS'246QH0401X'
p787
(S'Spec/Tech, Pathology'
p788
S'Hemapheresis Practitioner'
p789
tp790
sS'363LN0005X'
p791
(S'Nurse Practitioner'
p792
S'Neonatal, Critical Care'
p793
tp794
sS'204C00000X'
p795
(S'Neuromusculoskeletal Medicine, Sports Medicine'
p796
g3
tp797
sS'207RC0000X'
p798
(S'Internal Medicine'
p799
S'Cardiovascular Disease'
p800
tp801
sS'163WX1500X'
p802
(S'Registered Nurse'
p803
S'Ostomy Care'
p804
tp805
sS'103TH0004X'
p806
(S'Psychologist'
p807
S'Health'
p808
tp809
sS'163WE0900X'
p810
(S'Registered Nurse'
p811
S'Enterostomal Therapy'
p812
tp813
sS'183700000X'
p814
(S'Pharmacy Technician'
p815
g3
tp816
sS'1223P0700X'
p817
(S'Dentist'
p818
S'Prosthodontics'
p819
tp820
sS'3245S0500X'
p821
(S'Substance Abuse Rehabilitation Facility'
p822
S'Substance Abuse Treatment, Children'
p823
tp824
sS'2279H0200X'
p825
(S'Respiratory Therapist, Registered'
p826
S'Home Health'
p827
tp828
sS'103TP0814X'
p829
(S'Psychologist'
p830
S'Psychoanalysis'
p831
tp832
sS'207ZP0213X'
p833
(S'Pathology'
p834
S'Pediatric Pathology'
p835
tp836
sS'207VG0400X'
p837
(S'Obstetrics & Gynecology'
p838
S'Gynecology'
p839
tp840
sS'332U00000X'
p841
(S'Home Delivered Meals'
p842
g3
tp843
sS'261QM1103X'
p844
(S'Clinic/Center'
p845
S'Military Ambulatory Procedure Visits Operational (Transportable)'
p846
tp847
sS'2086S0102X'
p848
(S'Surgery'
p849
S'Surgical Critical Care'
p850
tp851
sS'207XX0801X'
p852
(S'Orthopaedic Surgery'
p853
S'Orthopaedic Trauma'
p854
tp855
sS'163WP1700X'
p856
(S'Registered Nurse'
p857
S'Perinatal'
p858
tp859
sS'2279S1500X'
p860
(S'Respiratory Therapist, Registered'
p861
S'SNF/Subacute Care'
p862
tp863
sS'2085N0904X'
p864
(S'Radiology'
p865
S'Nuclear Radiology'
p866
tp867
sS'174M00000X'
p868
(S'Veterinarian'
p869
g3
tp870
sS'163WW0101X'
p871
(S'Registered Nurse'
p872
S"Women's Health Care, Ambulatory"
p873
tp874
sS'364SH1100X'
p875
(S'Clinical Nurse Specialist'
p876
S'Holistic'
p877
tp878
sS'2279C0205X'
p879
(S'Respiratory Therapist, Registered'
p880
S'Critical Care'
p881
tp882
sS'225XR0403X'
p883
(S'Occupational Therapist'
p884
S'Driving and Community Mobility'
p885
tp886
sS'224L00000X'
p887
(S'Pedorthist'
p888
g3
tp889
sS'163WA2000X'
p890
(S'Registered Nurse'
p891
S'Administrator'
p892
tp893
sS'2472V0600X'
p894
(S'Technician, Other'
p895
S'Veterinary'
p896
tp897
sS'207ZD0900X'
p898
(S'Pathology'
p899
S'Dermatopathology'
p900
tp901
sS'225XP0019X'
p902
(S'Occupational Therapist'
p903
S'Physical Rehabilitation'
p904
tp905
sS'246R00000X'
p906
(S'Technician, Pathology'
p907
g3
tp908
sS'246ZB0500X'
p909
(S'Specialist/Technologist, Other'
p910
S'Biochemist'
p911
tp912
sS'1835G0000X'
p913
(S'Pharmacist'
p914
S'General Practice'
p915
tp916
sS'283X00000X'
p917
(S'Rehabilitation Hospital'
p918
g3
tp919
sS'207XS0114X'
p920
(S'Orthopaedic Surgery'
p921
S'Adult Reconstructive Orthopaedic Surgery'
p922
tp923
sS'261QF0050X'
p924
(S'Clinic/Center'
p925
S'Family Planning, Non-Surgical'
p926
tp927
sS'251B00000X'
p928
(S'Case Management'
p929
g3
tp930
sS'364SW0102X'
p931
(S'Clinical Nurse Specialist'
p932
S"Women's Health"
p933
tp934
sS'207ND0101X'
p935
(S'Dermatology'
p936
S'MOHS-Micrographic Surgery'
p937
tp938
sS'3336C0002X'
p939
(S'Pharmacy'
p940
S'Clinic Pharmacy'
p941
tp942
sS'133VN1005X'
p943
(S'Dietitian, Registered'
p944
S'Nutrition, Renal'
p945
tp946
sS'207RS0010X'
p947
(S'Internal Medicine'
p948
S'Sports Medicine'
p949
tp950
sS'208D00000X'
p951
(S'General Practice'
p952
g3
tp953
sS'202C00000X'
p954
(S'Independent Medical Examiner'
p955
g3
tp956
sS'224900000X'
p957
(S'Mastectomy Fitter'
p958
g3
tp959
sS'2471M1202X'
p960
(S'Radiologic Technologist'
p961
S'Magnetic Resonance Imaging'
p962
tp963
sS'3336I0012X'
p964
(S'Pharmacy'
p965
S'Institutional Pharmacy'
p966
tp967
sS'284300000X'
p968
(S'Special Hospital'
p969
g3
tp970
sS'133NN1002X'
p971
(S'Nutritionist'
p972
S'Nutrition, Education'
p973
tp974
sS'246QH0600X'
p975
(S'Spec/Tech, Pathology'
p976
S'Histology'
p977
tp978
sS'3140N1450X'
p979
(S'Skilled Nursing Facility'
p980
S'Nursing Care, Pediatric'
p981
tp982
sS'3418M1130X'
p983
(S'Military/U.S. Coast Guard Transport'
p984
S'Military or U.S. Coast Guard Ambulance, Water Transport'
p985
tp986
sS'363LC0200X'
p987
(S'Nurse Practitioner'
p988
S'Critical Care Medicine'
p989
tp990
sS'208000000X'
p991
(S'Pediatrics'
p992
g3
tp993
sS'163WN0800X'
p994
(S'Registered Nurse'
p995
S'Neuroscience'
p996
tp997
sS'224Z00000X'
p998
(S'Occupational Therapy Assistant'
p999
g3
tp1000
sS'207UN0901X'
p1001
(S'Nuclear Medicine'
p1002
S'Nuclear Cardiology'
p1003
tp1004
sS'261QM0855X'
p1005
(S'Clinic/Center'
p1006
S'Adolescent and Children Mental Health'
p1007
tp1008
sS'261QM1000X'
p1009
(S'Clinic/Center'
p1010
S'Migrant Health'
p1011
tp1012
sS'207ZC0500X'
p1013
(S'Pathology'
p1014
S'Cytopathology'
p1015
tp1016
sS'261QP2000X'
p1017
(S'Clinic/Center'
p1018
S'Physical Therapy'
p1019
tp1020
sS'2080P0210X'
p1021
(S'Pediatrics'
p1022
S'Pediatric Nephrology'
p1023
tp1024
sS'2084P0802X'
p1025
(S'Psychiatry & Neurology'
p1026
S'Addiction Psychiatry'
p1027
tp1028
sS'103TM1700X'
p1029
(S'Psychologist'
p1030
S'Men & Masculinity'
p1031
tp1032
sS'2080P0206X'
p1033
(S'Pediatrics'
p1034
S'Pediatric Gastroenterology'
p1035
tp1036
sS'251T00000X'
p1037
(S'PACE Provider Organization'
p1038
g3
tp1039
sS'207KA0200X'
p1040
(S'Allergy & Immunology'
p1041
S'Allergy'
p1042
tp1043
sS'174H00000X'
p1044
(S'Health Educator'
p1045
g3
tp1046
sS'207PE0004X'
p1047
(S'Emergency Medicine'
p1048
S'Emergency Medical Services'
p1049
tp1050
sS'152WV0400X'
p1051
(S'Optometrist'
p1052
S'Vision Therapy'
p1053
tp1054
sS'293D00000X'
p1055
(S'Physiological Laboratory'
p1056
g3
tp1057
sS'282N00000X'
p1058
(S'General Acute Care Hospital'
p1059
g3
tp1060
sS'156FC0801X'
p1061
(S'Technician/Technologist'
p1062
S'Contact Lens Fitter'
p1063
tp1064
sS'163WN1003X'
p1065
(S'Registered Nurse'
p1066
S'Nutrition Support'
p1067
tp1068
sS'163WC3500X'
p1069
(S'Registered Nurse'
p1070
S'Cardiac Rehabilitation'
p1071
tp1072
sS'347C00000X'
p1073
(S'Private Vehicle'
p1074
g3
tp1075
sS'332BD1200X'
p1076
(S'Durable Medical Equipment & Medical Supplies'
p1077
S'Dialysis Equipment & Supplies'
p1078
tp1079
sS'103TR0400X'
p1080
(S'Psychologist'
p1081
S'Rehabilitation'
p1082
tp1083
sS'103TP2701X'
p1084
(S'Psychologist'
p1085
S'Group Psychotherapy'
p1086
tp1087
sS'125K00000X'
p1088
(S'Advanced Practice Dental Therapist'
p1089
g3
tp1090
sS'261QI0500X'
p1091
(S'Clinic/Center'
p1092
S'Infusion Therapy'
p1093
tp1094
sS'1835X0200X'
p1095
(S'Pharmacist'
p1096
S'Oncology'
p1097
tp1098
sS'146N00000X'
p1099
(S'Emergency Medical Technician, Basic'
p1100
g3
tp1101
sS'222Q00000X'
p1102
(S'Developmental Therapist'
p1103
g3
tp1104
sS'103TE1000X'
p1105
(S'Psychologist'
p1106
S'Educational'
p1107
tp1108
sS'207RG0300X'
p1109
(S'Internal Medicine'
p1110
S'Geriatric Medicine'
p1111
tp1112
sS'374K00000X'
p1113
(S'Religious Nonmedical Practitioner'
p1114
g3
tp1115
sS'2081H0002X'
p1116
(S'Physical Medicine & Rehabilitation'
p1117
S'Hospice and Palliative Medicine'
p1118
tp1119
sS'163WF0300X'
p1120
(S'Registered Nurse'
p1121
S'Flight'
p1122
tp1123
sS'364SN0000X'
p1124
(S'Clinical Nurse Specialist'
p1125
S'Neonatal'
p1126
tp1127
sS'343800000X'
p1128
(S'Secured Medical Transport (VAN)'
p1129
g3
tp1130
sS'2278P3800X'
p1131
(S'Respiratory Therapist, Certified'
p1132
S'Palliative/Hospice'
p1133
tp1134
sS'136A00000X'
p1135
(S'Dietetic Technician, Registered'
p1136
g3
tp1137
sS'2085B0100X'
p1138
(S'Radiology'
p1139
S'Body Imaging'
p1140
tp1141
sS'2471R0002X'
p1142
(S'Radiologic Technologist'
p1143
S'Radiation Therapy'
p1144
tp1145
sS'225A00000X'
p1146
(S'Music Therapist'
p1147
g3
tp1148
sS'2080P0208X'
p1149
(S'Pediatrics'
p1150
S'Pediatric Infectious Diseases'
p1151
tp1152
sS'111NP0017X'
p1153
(S'Chiropractor'
p1154
S'Pediatric Chiropractor'
p1155
tp1156
sS'315P00000X'
p1157
(S'Intermediate Care Facility, Mentally Retarded'
p1158
g3
tp1159
sS'207RX0202X'
p1160
(S'Internal Medicine'
p1161
S'Medical Oncology'
p1162
tp1163
sS'2279P1005X'
p1164
(S'Respiratory Therapist, Registered'
p1165
S'Pulmonary Rehabilitation'
p1166
tp1167
sS'164X00000X'
p1168
(S'Licensed Vocational Nurse'
p1169
g3
tp1170
sS'2084V0102X'
p1171
(S'Psychiatry & Neurology'
p1172
S'Vascular Neurology'
p1173
tp1174
sS'364SP0200X'
p1175
(S'Clinical Nurse Specialist'
p1176
S'Pediatrics'
p1177
tp1178
sS'172V00000X'
p1179
(S'Community Health Worker'
p1180
g3
tp1181
sS'207QS1201X'
p1182
(S'Family Medicine'
p1183
S'Sleep Medicine'
p1184
tp1185
sS'124Q00000X'
p1186
(S'Dental Hygienist'
p1187
g3
tp1188
sS'172P00000X'
p1189
(S'Naprapath'
p1190
g3
tp1191
sS'207W00000X'
p1192
(S'Ophthalmology'
p1193
g3
tp1194
sS'261QR0200X'
p1195
(S'Clinic/Center'
p1196
S'Radiology'
p1197
tp1198
sS'2084B0040X'
p1199
(S'Psychiatry & Neurology'
p1200
S'Behavioral Neurology & Neuropsychiatry'
p1201
tp1202
sS'2085R0202X'
p1203
(S'Radiology'
p1204
S'Diagnostic Radiology'
p1205
tp1206
sS'207ZN0500X'
p1207
(S'Pathology'
p1208
S'Neuropathology'
p1209
tp1210
sS'2278S1500X'
p1211
(S'Respiratory Therapist, Certified'
p1212
S'SNF/Subacute Care'
p1213
tp1214
sS'207RR0500X'
p1215
(S'Internal Medicine'
p1216
S'Rheumatology'
p1217
tp1218
sS'246Z00000X'
p1219
(S'Specialist/Technologist, Other'
p1220
g3
tp1221
sS'163WP2201X'
p1222
(S'Registered Nurse'
p1223
S'Ambulatory Care'
p1224
tp1225
sS'126900000X'
p1226
(S'Dental Laboratory Technician'
p1227
g3
tp1228
sS'207ZB0001X'
p1229
(S'Pathology'
p1230
S'Blood Banking & Transfusion Medicine'
p1231
tp1232
sS'243U00000X'
p1233
(S'Radiology Practitioner Assistant'
p1234
g3
tp1235
sS'207ZP0007X'
p1236
(S'Pathology'
p1237
S'Molecular Genetic Pathology'
p1238
tp1239
sS'364SA2200X'
p1240
(S'Clinical Nurse Specialist'
p1241
S'Adult Health'
p1242
tp1243
sS'207YX0901X'
p1244
(S'Otolaryngology'
p1245
S'Otology & Neurotology'
p1246
tp1247
sS'221700000X'
p1248
(S'Art Therapist'
p1249
g3
tp1250
sS'111NT0100X'
p1251
(S'Chiropractor'
p1252
S'Thermography'
p1253
tp1254
sS'333600000X'
p1255
(S'Pharmacy'
p1256
g3
tp1257
sS'1223G0001X'
p1258
(S'Dentist'
p1259
S'General Practice'
p1260
tp1261
sS'2080P0203X'
p1262
(S'Pediatrics'
p1263
S'Pediatric Critical Care Medicine'
p1264
tp1265
sS'261QV0200X'
p1266
(S'Clinic/Center'
p1267
S'VA'
p1268
tp1269
sS'225600000X'
p1270
(S'Dance Therapist'
p1271
g3
tp1272
sS'163WP0808X'
p1273
(S'Registered Nurse'
p1274
S'Psych/Mental Health'
p1275
tp1276
sS'207ZC0006X'
p1277
(S'Pathology'
p1278
S'Clinical Pathology'
p1279
tp1280
sS'177F00000X'
p1281
(S'Lodging'
p1282
g3
tp1283
sS'207VF0040X'
p1284
(S'Obstetrics & Gynecology'
p1285
S'Female Pelvic Medicine and Reconstructive Surgery'
p1286
tp1287
sS'246Y00000X'
p1288
(S'Spec/Tech, Health Info'
p1289
g3
tp1290
sS'261QX0100X'
p1291
(S'Clinic/Center'
p1292
S'Occupational Medicine'
p1293
tp1294
sS'363LP2300X'
p1295
(S'Nurse Practitioner'
p1296
S'Primary Care'
p1297
tp1298
sS'372600000X'
p1299
(S'Adult Companion'
p1300
g3
tp1301
sS'246QH0000X'
p1302
(S'Spec/Tech, Pathology'
p1303
S'Hematology'
p1304
tp1305
sS'175M00000X'
p1306
(S'Midwife, Lay'
p1307
g3
tp1308
sS'163WI0500X'
p1309
(S'Registered Nurse'
p1310
S'Infusion Therapy'
p1311
tp1312
sS'207XS0106X'
p1313
(S'Orthopaedic Surgery'
p1314
S'Hand Surgery'
p1315
tp1316
sS'364SH0200X'
p1317
(S'Clinical Nurse Specialist'
p1318
S'Home Health'
p1319
tp1320
sS'207ND0900X'
p1321
(S'Dermatology'
p1322
S'Dermatopathology'
p1323
tp1324
sS'213ES0103X'
p1325
(S'Podiatrist'
p1326
S'Foot & Ankle Surgery'
p1327
tp1328
sS'225100000X'
p1329
(S'Physical Therapist'
p1330
g3
tp1331
sS'163WP0000X'
p1332
(S'Registered Nurse'
p1333
S'Pain Management'
p1334
tp1335
sS'251X00000X'
p1336
(S'Supports Brokerage'
p1337
g3
tp1338
sS'3336S0011X'
p1339
(S'Pharmacy'
p1340
S'Specialty Pharmacy'
p1341
tp1342
sS'207RH0002X'
p1343
(S'Internal Medicine'
p1344
S'Hospice and Palliative Medicine'
p1345
tp1346
sS'2086S0105X'
p1347
(S'Surgery'
p1348
S'Surgery of the Hand'
p1349
tp1350
sS'207YX0602X'
p1351
(S'Otolaryngology'
p1352
S'Otolaryngic Allergy'
p1353
tp1354
sS'2278E1000X'
p1355
(S'Respiratory Therapist, Certified'
p1356
S'Educational'
p1357
tp1358
sS'332800000X'
p1359
(S'Indian Health Service/Tribal/Urban Indian Health (I/T/U) Pharmacy'
p1360
g3
tp1361
sS'2080P0214X'
p1362
(S'Pediatrics'
p1363
S'Pediatric Pulmonology'
p1364
tp1365
sS'2081N0008X'
p1366
(S'Physical Medicine & Rehabilitation'
p1367
S'Neuromuscular Medicine'
p1368
tp1369
sS'261QA3000X'
p1370
(S'Clinic/Center'
p1371
S'Augmentative Communication'
p1372
tp1373
sS'376J00000X'
p1374
(S'Homemaker'
p1375
g3
tp1376
sS'208200000X'
p1377
(S'Plastic Surgery'
p1378
g3
tp1379
sS'2084N0402X'
p1380
(S'Psychiatry & Neurology'
p1381
S'Neurology with Special Qualifications in Child Neurology'
p1382
tp1383
sS'273Y00000X'
p1384
(S'Rehabilitation Unit'
p1385
g3
tp1386
sS'207ZP0102X'
p1387
(S'Pathology'
p1388
S'Anatomic Pathology & Clinical Pathology'
p1389
tp1390
sS'163WH0500X'
p1391
(S'Registered Nurse'
p1392
S'Hemodialysis'
p1393
tp1394
sS'231HA2400X'
p1395
(S'Audiologist'
p1396
S'Assistive Technology Practitioner'
p1397
tp1398
sS'2086S0129X'
p1399
(S'Surgery'
p1400
S'Vascular Surgery'
p1401
tp1402
sS'3416S0300X'
p1403
(S'Ambulance'
p1404
S'Water Transport'
p1405
tp1406
sS'2081P2900X'
p1407
(S'Physical Medicine & Rehabilitation'
p1408
S'Pain Medicine'
p1409
tp1410
sS'261Q00000X'
p1411
(S'Clinic/Center'
p1412
g3
tp1413
sS'213EP1101X'
p1414
(S'Podiatrist'
p1415
S'Primary Podiatric Medicine'
p1416
tp1417
sS'207YS0123X'
p1418
(S'Otolaryngology'
p1419
S'Facial Plastic Surgery'
p1420
tp1421
sS'2080P0006X'
p1422
(S'Pediatrics'
p1423
S'Developmental \xef\xbe\x96 Behavioral Pediatrics'
p1424
tp1425
sS'281P00000X'
p1426
(S'Chronic Disease Hospital'
p1427
g3
tp1428
sS'374700000X'
p1429
(S'Technician'
p1430
g3
tp1431
sS'225500000X'
p1432
(S'Specialist/Technologist'
p1433
g3
tp1434
sS'207RC0001X'
p1435
(S'Internal Medicine'
p1436
S'Clinical Cardiac Electrophysiology'
p1437
tp1438
sS'207V00000X'
p1439
(S'Obstetrics & Gynecology'
p1440
g3
tp1441
sS'207LA0401X'
p1442
(S'Anesthesiology'
p1443
S'Addiction Medicine'
p1444
tp1445
sS'246ZI1000X'
p1446
(S'Specialist/Technologist, Other'
p1447
S'Illustration, Medical'
p1448
tp1449
sS'156F00000X'
p1450
(S'Technician/Technologist'
p1451
g3
tp1452
sS'332BC3200X'
p1453
(S'Durable Medical Equipment & Medical Supplies'
p1454
S'Customized Equipment'
p1455
tp1456
sS'2080T0004X'
p1457
(S'Pediatrics'
p1458
S'Pediatric Transplant Hepatology'
p1459
tp1460
sS'163WX1100X'
p1461
(S'Registered Nurse'
p1462
S'Ophthalmic'
p1463
tp1464
sS'156FX1900X'
p1465
(S'Technician/Technologist'
p1466
S'Orthoptist'
p1467
tp1468
sS'2086H0002X'
p1469
(S'Surgery'
p1470
S'Hospice and Palliative Medicine'
p1471
tp1472
sS'174MM1900X'
p1473
(S'Veterinarian'
p1474
S'Medical Research'
p1475
tp1476
sS'207XX0005X'
p1477
(S'Orthopaedic Surgery'
p1478
S'Sports Medicine'
p1479
tp1480
sS'163WN0002X'
p1481
(S'Registered Nurse'
p1482
S'Neonatal Intensive Care'
p1483
tp1484
sS'152WL0500X'
p1485
(S'Optometrist'
p1486
S'Low Vision Rehabilitation'
p1487
tp1488
sS'1223P0106X'
p1489
(S'Dentist'
p1490
S'Oral and Maxillofacial Pathology'
p1491
tp1492
sS'207QS0010X'
p1493
(S'Family Medicine'
p1494
S'Sports Medicine'
p1495
tp1496
sS'302R00000X'
p1497
(S'Health Maintenance Organization'
p1498
g3
tp1499
sS'335U00000X'
p1500
(S'Organ Procurement Organization'
p1501
g3
tp1502
sS'111NS0005X'
p1503
(S'Chiropractor'
p1504
S'Sports Physician'
p1505
tp1506
sS'163WG0000X'
p1507
(S'Registered Nurse'
p1508
S'General Practice'
p1509
tp1510
sS'364SA2100X'
p1511
(S'Clinical Nurse Specialist'
p1512
S'Acute Care'
p1513
tp1514
sS'335V00000X'
p1515
(S'Portable X-Ray Supplier'
p1516
g3
tp1517
sS'2278P1004X'
p1518
(S'Respiratory Therapist, Certified'
p1519
S'Pulmonary Diagnostics'
p1520
tp1521
sS'261QE0700X'
p1522
(S'Clinic/Center'
p1523
S'End-Stage Renal Disease (ESRD) Treatment'
p1524
tp1525
sS'2279P1004X'
p1526
(S'Respiratory Therapist, Registered'
p1527
S'Pulmonary Diagnostics'
p1528
tp1529
sS'122400000X'
p1530
(S'Denturist'
p1531
g3
tp1532
sS'225XH1200X'
p1533
(S'Occupational Therapist'
p1534
S'Hand'
p1535
tp1536
sS'1835N1003X'
p1537
(S'Pharmacist'
p1538
S'Nutrition Support'
p1539
tp1540
sS'246RP1900X'
p1541
(S'Technician, Pathology'
p1542
S'Phlebotomy'
p1543
tp1544
sS'207RI0200X'
p1545
(S'Internal Medicine'
p1546
S'Infectious Disease'
p1547
tp1548
sS'226300000X'
p1549
(S'Kinesiotherapist'
p1550
g3
tp1551
sS'246ZE0600X'
p1552
(S'Specialist/Technologist, Other'
p1553
S'Electroneurodiagnostic'
p1554
tp1555
sS'2084P0805X'
p1556
(S'Psychiatry & Neurology'
p1557
S'Geriatric Psychiatry'
p1558
tp1559
sS'204E00000X'
p1560
(S'Oral & Maxillofacial Surgery'
p1561
g3
tp1562
sS'224Y00000X'
p1563
(S'Clinical Exercise Physiologist'
p1564
g3
tp1565
sS'207XP3100X'
p1566
(S'Orthopaedic Surgery'
p1567
S'Pediatric Orthopaedic Surgery'
p1568
tp1569
sS'133VN1006X'
p1570
(S'Dietitian, Registered'
p1571
S'Nutrition, Metabolic'
p1572
tp1573
sS'163W00000X'
p1574
(S'Registered Nurse'
p1575
g3
tp1576
sS'302F00000X'
p1577
(S'Exclusive Provider Organization'
p1578
g3
tp1579
sS'207RH0005X'
p1580
(S'Internal Medicine'
p1581
S'Hypertension Specialist'
p1582
tp1583
sS'103TC2200X'
p1584
(S'Psychologist'
p1585
S'Clinical Child & Adolescent'
p1586
tp1587
sS'332H00000X'
p1588
(S'Eyewear Supplier (Equipment, not the service)'
p1589
g3
tp1590
sS'207VB0002X'
p1591
(S'Obstetrics & Gynecology'
p1592
S'Bariatric Medicine'
p1593
tp1594
sS'2278G1100X'
p1595
(S'Respiratory Therapist, Certified'
p1596
S'General Care'
p1597
tp1598
sS'311ZA0620X'
p1599
(S'Custodial Care Facility'
p1600
S'Adult Care Home'
p1601
tp1602
sS'364SX0204X'
p1603
(S'Clinical Nurse Specialist'
p1604
S'Oncology, Pediatrics'
p1605
tp1606
sS'207PS0010X'
p1607
(S'Emergency Medicine'
p1608
S'Sports Medicine'
p1609
tp1610
sS'2470A2800X'
p1611
(S'Technician, Health Information'
p1612
S'Assistant Record Technician'
p1613
tp1614
sS'207K00000X'
p1615
(S'Allergy & Immunology'
p1616
g3
tp1617
sS'207RM1200X'
p1618
(S'Internal Medicine'
p1619
S'Magnetic Resonance Imaging (MRI)'
p1620
tp1621
sS'315D00000X'
p1622
(S'Hospice, Inpatient'
p1623
g3
tp1624
sS'111NI0013X'
p1625
(S'Chiropractor'
p1626
S'Independent Medical Examiner'
p1627
tp1628
sS'237600000X'
p1629
(S'Audiologist-Hearing Aid Fitter'
p1630
g3
tp1631
sS'175L00000X'
p1632
(S'Homeopath'
p1633
g3
tp1634
sS'364SX0106X'
p1635
(S'Clinical Nurse Specialist'
p1636
S'Occupational Health'
p1637
tp1638
sS'207RI0008X'
p1639
(S'Internal Medicine'
p1640
S'Hepatology'
p1641
tp1642
sS'225CA2500X'
p1643
(S'Rehabilitation Counselor'
p1644
S'Assistive Technology Supplier'
p1645
tp1646
sS'207LP2900X'
p1647
(S'Anesthesiology'
p1648
S'Pain Medicine'
p1649
tp1650
sS'167G00000X'
p1651
(S'Licensed Psychiatric Technician'
p1652
g3
tp1653
sS'333300000X'
p1654
(S'Emergency Response System Companies'
p1655
g3
tp1656
sS'246XS1301X'
p1657
(S'Spec/Tech, Cardiovascular'
p1658
S'Sonography'
p1659
tp1660
sS'2080P0207X'
p1661
(S'Pediatrics'
p1662
S'Pediatric Hematology-Oncology'
p1663
tp1664
sS'347D00000X'
p1665
(S'Train'
p1666
g3
tp1667
sS'111NI0900X'
p1668
(S'Chiropractor'
p1669
S'Internist'
p1670
tp1671
sS'2088F0040X'
p1672
(S'Urology'
p1673
S'Female Pelvic Medicine and Reconstructive Surgery'
p1674
tp1675
sS'163WX0200X'
p1676
(S'Registered Nurse'
p1677
S'Oncology'
p1678
tp1679
sS'385HR2065X'
p1680
(S'Respite Care'
p1681
S'Respite Care, Physical Disabilities, Child'
p1682
tp1683
sS'103TS0200X'
p1684
(S'Psychologist'
p1685
S'School'
p1686
tp1687
sS'101YA0400X'
p1688
(S'Counselor'
p1689
S'Addiction (Substance Use Disorder)'
p1690
tp1691
sS'207QA0000X'
p1692
(S'Family Medicine'
p1693
S'Adolescent Medicine'
p1694
tp1695
sS'305S00000X'
p1696
(S'Point of Service'
p1697
g3
tp1698
sS'261QX0203X'
p1699
(S'Clinic/Center'
p1700
S'Oncology, Radiation'
p1701
tp1702
sS'2251G0304X'
p1703
(S'Physical Therapist'
p1704
S'Geriatrics'
p1705
tp1706
sS'207SG0203X'
p1707
(S'Medical Genetics'
p1708
S'Clinical Molecular Genetics'
p1709
tp1710
sS'1223E0200X'
p1711
(S'Dentist'
p1712
S'Endodontics'
p1713
tp1714
sS'174200000X'
p1715
(S'Meals'
p1716
g3
tp1717
sS'2084S0012X'
p1718
(S'Psychiatry & Neurology'
p1719
S'Sleep Medicine'
p1720
tp1721
sS'363LS0200X'
p1722
(S'Nurse Practitioner'
p1723
S'School'
p1724
tp1725
sS'251C00000X'
p1726
(S'Day Training, Developmentally Disabled Services'
p1727
g3
tp1728
sS'332000000X'
p1729
(S'Military/U.S. Coast Guard Pharmacy'
p1730
g3
tp1731
sS'224P00000X'
p1732
(S'Prosthetist'
p1733
g3
tp1734
sS'344600000X'
p1735
(S'Taxi'
p1736
g3
tp1737
sS'2082S0105X'
p1738
(S'Plastic Surgery'
p1739
S'Surgery of the Hand'
p1740
tp1741
sS'363LP0808X'
p1742
(S'Nurse Practitioner'
p1743
S'Psych/Mental Health'
p1744
tp1745
sS'261QS1000X'
p1746
(S'Clinic/Center'
p1747
S'Student Health'
p1748
tp1749
sS'251V00000X'
p1750
(S'Voluntary or Charitable'
p1751
g3
tp1752
sS'2084P0015X'
p1753
(S'Psychiatry & Neurology'
p1754
S'Psychosomatic Medicine'
p1755
tp1756
sS'2085N0700X'
p1757
(S'Radiology'
p1758
S'Neuroradiology'
p1759
tp1760
sS'208100000X'
p1761
(S'Physical Medicine & Rehabilitation'
p1762
g3
tp1763
sS'2084D0003X'
p1764
(S'Psychiatry & Neurology'
p1765
S'Diagnostic Neuroimaging'
p1766
tp1767
sS'1041S0200X'
p1768
(S'Social Worker'
p1769
S'School'
p1770
tp1771
sS'374T00000X'
p1772
(S'Religious Nonmedical Nursing Personnel'
p1773
g3
tp1774
sS'2471C1106X'
p1775
(S'Radiologic Technologist'
p1776
S'Cardiac-Interventional Technology'
p1777
tp1778
sS'261QP2400X'
p1779
(S'Clinic/Center'
p1780
S'Prison Health'
p1781
tp1782
sS'163WP0218X'
p1783
(S'Registered Nurse'
p1784
S'Pediatric Oncology'
p1785
tp1786
sS'247200000X'
p1787
(S'Technician, Other'
p1788
g3
tp1789
sS'103TP0016X'
p1790
(S'Psychologist'
p1791
S'Prescribing (Medical)'
p1792
tp1793
sS'225C00000X'
p1794
(S'Rehabilitation Counselor'
p1795
g3
tp1796
sS'291900000X'
p1797
(S'Military Clinical Medical Laboratory'
p1798
g3
tp1799
sS'3104A0625X'
p1800
(S'Assisted Living Facility'
p1801
S'Assisted Living, Mental Illness'
p1802
tp1803
sS'364SP2800X'
p1804
(S'Clinical Nurse Specialist'
p1805
S'Perioperative'
p1806
tp1807
sS'2080S0010X'
p1808
(S'Pediatrics'
p1809
S'Sports Medicine'
p1810
tp1811
sS'163WP0200X'
p1812
(S'Registered Nurse'
p1813
S'Pediatrics'
p1814
tp1815
sS'207RP1001X'
p1816
(S'Internal Medicine'
p1817
S'Pulmonary Disease'
p1818
tp1819
sS'385HR2055X'
p1820
(S'Respite Care'
p1821
S'Respite Care, Mental Illness, Child'
p1822
tp1823
sS'146D00000X'
p1824
(S'Personal Emergency Response Attendant'
p1825
g3
tp1826
sS'207RA0401X'
p1827
(S'Internal Medicine'
p1828
S'Addiction Medicine'
p1829
tp1830
sS'2081P0010X'
p1831
(S'Physical Medicine & Rehabilitation'
p1832
S'Pediatric Rehabilitation Medicine'
p1833
tp1834
sS'163WX0601X'
p1835
(S'Registered Nurse'
p1836
S'Otorhinolaryngology & Head-Neck'
p1837
tp1838
sS'207YP0228X'
p1839
(S'Otolaryngology'
p1840
S'Pediatric Otolaryngology'
p1841
tp1842
sS'2083S0010X'
p1843
(S'Preventive Medicine'
p1844
S'Sports Medicine'
p1845
tp1846
sS'246RH0600X'
p1847
(S'Technician, Pathology'
p1848
S'Histology'
p1849
tp1850
sS'207N00000X'
p1851
(S'Dermatology'
p1852
g3
tp1853
sS'2084N0600X'
p1854
(S'Psychiatry & Neurology'
p1855
S'Clinical Neurophysiology'
p1856
tp1857
sS'2251C2600X'
p1858
(S'Physical Therapist'
p1859
S'Cardiopulmonary'
p1860
tp1861
sS'173000000X'
p1862
(S'Legal Medicine'
p1863
g3
tp1864
sS'246QC2700X'
p1865
(S'Spec/Tech, Pathology'
p1866
S'Cytotechnology'
p1867
tp1868
sS'364SP0809X'
p1869
(S'Clinical Nurse Specialist'
p1870
S'Psych/Mental Health, Adult'
p1871
tp1872
sS'126800000X'
p1873
(S'Dental Assistant'
p1874
g3
tp1875
sS'207RA0000X'
p1876
(S'Internal Medicine'
p1877
S'Adolescent Medicine'
p1878
tp1879
sS'208U00000X'
p1880
(S'Clinical Pharmacology'
p1881
g3
tp1882
sS'261QM1102X'
p1883
(S'Clinic/Center'
p1884
S'Military Outpatient Operational (Transportable) Component'
p1885
tp1886
sS'364SG0600X'
p1887
(S'Clinical Nurse Specialist'
p1888
S'Gerontology'
p1889
tp1890
sS'163WC0200X'
p1891
(S'Registered Nurse'
p1892
S'Critical Care Medicine'
p1893
tp1894
sS'343900000X'
p1895
(S'Non-emergency Medical Transport (VAN)'
p1896
g3
tp1897
sS'246QM0706X'
p1898
(S'Spec/Tech, Pathology'
p1899
S'Medical Technologist'
p1900
tp1901
sS'207T00000X'
p1902
(S'Neurological Surgery'
p1903
g3
tp1904
sS'2080P0008X'
p1905
(S'Pediatrics'
p1906
S'Neurodevelopmental Disabilities'
p1907
tp1908
sS'363LN0000X'
p1909
(S'Nurse Practitioner'
p1910
S'Neonatal'
p1911
tp1912
sS'2278P4000X'
p1913
(S'Respiratory Therapist, Certified'
p1914
S'Patient Transport'
p1915
tp1916
sS'207U00000X'
p1917
(S'Nuclear Medicine'
p1918
g3
tp1919
sS'261QP1100X'
p1920
(S'Clinic/Center'
p1921
S'Podiatric'
p1922
tp1923
sS'2279P3800X'
p1924
(S'Respiratory Therapist, Registered'
p1925
S'Palliative/Hospice'
p1926
tp1927
sS'227800000X'
p1928
(S'Respiratory Therapist, Certified'
p1929
g3
tp1930
sS'261QX0200X'
p1931
(S'Clinic/Center'
p1932
S'Oncology'
p1933
tp1934
sS'2471N0900X'
p1935
(S'Radiologic Technologist'
p1936
S'Nuclear Medicine Technology'
p1937
tp1938
sS'364S00000X'
p1939
(S'Clinical Nurse Specialist'
p1940
g3
tp1941
sS'273100000X'
p1942
(S'Epilepsy Unit'
p1943
g3
tp1944
sS'2080N0001X'
p1945
(S'Pediatrics'
p1946
S'Neonatal-Perinatal Medicine'
p1947
tp1948
sS'2278C0205X'
p1949
(S'Respiratory Therapist, Certified'
p1950
S'Critical Care'
p1951
tp1952
sS'103G00000X'
p1953
(S'Clinical Neuropsychologist'
p1954
g3
tp1955
sS'207Y00000X'
p1956
(S'Otolaryngology'
p1957
g3
tp1958
sS'163WM0102X'
p1959
(S'Registered Nurse'
p1960
S'Maternal Newborn'
p1961
tp1962
sS'283Q00000X'
p1963
(S'Psychiatric Hospital'
p1964
g3
tp1965
sS'261QE0800X'
p1966
(S'Clinic/Center'
p1967
S'Endoscopy'
p1968
tp1969
sS'163WX0003X'
p1970
(S'Registered Nurse'
p1971
S'Obstetric, Inpatient'
p1972
tp1973
sS'261QR0208X'
p1974
(S'Clinic/Center'
p1975
S'Radiology, Mobile'
p1976
tp1977
sS'1835P1300X'
p1978
(S'Pharmacist'
p1979
S'Psychiatric'
p1980
tp1981
sS'172A00000X'
p1982
(S'Driver'
p1983
g3
tp1984
sS'207PE0005X'
p1985
(S'Emergency Medicine'
p1986
S'Undersea and Hyperbaric Medicine'
p1987
tp1988
sS'3418M1110X'
p1989
(S'Military/U.S. Coast Guard Transport'
p1990
S'Military or U.S. Coast Guard Ambulance, Ground Transport'
p1991
tp1992
sS'173C00000X'
p1993
(S'Reflexologist'
p1994
g3
tp1995
sS'156FC0800X'
p1996
(S'Technician/Technologist'
p1997
S'Contact Lens'
p1998
tp1999
sS'207ZI0100X'
p2000
(S'Pathology'
p2001
S'Immunopathology'
p2002
tp2003
sS'225XP0200X'
p2004
(S'Occupational Therapist'
p2005
S'Pediatrics'
p2006
tp2007
sS'261QD0000X'
p2008
(S'Clinic/Center'
p2009
S'Dental'
p2010
tp2011
sS'2084P0800X'
p2012
(S'Psychiatry & Neurology'
p2013
S'Psychiatry'
p2014
tp2015
sS'163WX0800X'
p2016
(S'Registered Nurse'
p2017
S'Orthopedic'
p2018
tp2019
sS'156FX1100X'
p2020
(S'Technician/Technologist'
p2021
S'Ophthalmic'
p2022
tp2023
sS'224ZR0403X'
p2024
(S'Occupational Therapy Assistant'
p2025
S'Driving and Community Mobility'
p2026
tp2027
sS'207QB0002X'
p2028
(S'Family Medicine'
p2029
S'Bariatric Medicine'
p2030
tp2031
sS'246ZB0301X'
p2032
(S'Specialist/Technologist, Other'
p2033
S'Biomedical Engineering'
p2034
tp2035
sS'385HR2060X'
p2036
(S'Respite Care'
p2037
S'Respite Care, Mental Retardation and/or Developmental Disabilities, Child'
p2038
tp2039
sS'2251E1300X'
p2040
(S'Physical Therapist'
p2041
S'Electrophysiology, Clinical'
p2042
tp2043
sS'207ZP0104X'
p2044
(S'Pathology'
p2045
S'Chemical Pathology'
p2046
tp2047
sS'103TP2700X'
p2048
(S'Psychologist'
p2049
S'Psychotherapy'
p2050
tp2051
sS'2084A0401X'
p2052
(S'Psychiatry & Neurology'
p2053
S'Addiction Medicine'
p2054
tp2055
sS'2084H0002X'
p2056
(S'Psychiatry & Neurology'
p2057
S'Hospice and Palliative Medicine'
p2058
tp2059
sS'291U00000X'
p2060
(S'Clinical Medical Laboratory'
p2061
g3
tp2062
sS'101YM0800X'
p2063
(S'Counselor'
p2064
S'Mental Health'
p2065
tp2066
sS'251G00000X'
p2067
(S'Hospice Care, Community Based'
p2068
g3
tp2069
sS'235Z00000X'
p2070
(S'Speech-Language Pathologist'
p2071
g3
tp2072
sS'1041C0700X'
p2073
(S'Social Worker'
p2074
S'Clinical'
p2075
tp2076
sS'2085R0205X'
p2077
(S'Radiology'
p2078
S'Radiological Physics'
p2079
tp2080
sS'246RM2200X'
p2081
(S'Technician, Pathology'
p2082
S'Medical Laboratory'
p2083
tp2084
sS'367A00000X'
p2085
(S'Advanced Practice Midwife'
p2086
g3
tp2087
sS'246QB0000X'
p2088
(S'Spec/Tech, Pathology'
p2089
S'Blood Banking'
p2090
tp2091
sS'213EG0000X'
p2092
(S'Podiatrist'
p2093
S'General Practice'
p2094
tp2095
sS'1223X0400X'
p2096
(S'Dentist'
p2097
S'Orthodontics and Dentofacial Orthopedics'
p2098
tp2099
sS'207PH0002X'
p2100
(S'Emergency Medicine'
p2101
S'Hospice and Palliative Medicine'
p2102
tp2103
sS'207XX0004X'
p2104
(S'Orthopaedic Surgery'
p2105
S'Foot and Ankle Surgery'
p2106
tp2107
sS'103TF0000X'
p2108
(S'Psychologist'
p2109
S'Family'
p2110
tp2111
sS'3416A0800X'
p2112
(S'Ambulance'
p2113
S'Air Transport'
p2114
tp2115
sS'261QH0700X'
p2116
(S'Clinic/Center'
p2117
S'Hearing and Speech'
p2118
tp2119
sS'261QR0206X'
p2120
(S'Clinic/Center'
p2121
S'Radiology, Mammography'
p2122
tp2123
sS'224ZE0001X'
p2124
(S'Occupational Therapy Assistant'
p2125
S'Environmental Modification'
p2126
tp2127
sS'261QR0404X'
p2128
(S'Clinic/Center'
p2129
S'Rehabilitation, Cardiac Facilities'
p2130
tp2131
sS'282NW0100X'
p2132
(S'General Acute Care Hospital'
p2133
S'Women'
p2134
tp2135
sS'208C00000X'
p2136
(S'Colon & Rectal Surgery'
p2137
g3
tp2138
sS'385HR2050X'
p2139
(S'Respite Care'
p2140
S'Respite Care Camp'
p2141
tp2142
sS'1835N0905X'
p2143
(S'Pharmacist'
p2144
S'Nuclear'
p2145
tp2146
sS'2278P1005X'
p2147
(S'Respiratory Therapist, Certified'
p2148
S'Pulmonary Rehabilitation'
p2149
tp2150
sS'1223P0221X'
p2151
(S'Dentist'
p2152
S'Pediatric Dentistry'
p2153
tp2154
sS'163WP0807X'
p2155
(S'Registered Nurse'
p2156
S'Psych/Mental Health, Child & Adolescent'
p2157
tp2158
sS'207VX0201X'
p2159
(S'Obstetrics & Gynecology'
p2160
S'Gynecologic Oncology'
p2161
tp2162
sS'207RN0300X'
p2163
(S'Internal Medicine'
p2164
S'Nephrology'
p2165
tp2166
sS'207YX0007X'
p2167
(S'Otolaryngology'
p2168
S'Plastic Surgery within the Head & Neck'
p2169
tp2170
sS'207YS0012X'
p2171
(S'Otolaryngology'
p2172
S'Sleep Medicine'
p2173
tp2174
sS'2084B0002X'
p2175
(S'Psychiatry & Neurology'
p2176
S'Bariatric Medicine'
p2177
tp2178
sS'207SM0001X'
p2179
(S'Medical Genetics'
p2180
S'Molecular Genetic Pathology'
p2181
tp2182
sS'282NC0060X'
p2183
(S'General Acute Care Hospital'
p2184
S'Critical Access'
p2185
tp2186
sS'163WC1400X'
p2187
(S'Registered Nurse'
p2188
S'College Health'
p2189
tp2190
sS'208G00000X'
p2191
(S'Thoracic Surgery (Cardiothoracic Vascular Surgery)'
p2192
g3
tp2193
sS'332B00000X'
p2194
(S'Durable Medical Equipment & Medical Supplies'
p2195
g3
tp2196
sS'261QS1200X'
p2197
(S'Clinic/Center'
p2198
S'Sleep Disorder Diagnostic'
p2199
tp2200
sS'207RA0201X'
p2201
(S'Internal Medicine'
p2202
S'Allergy & Immunology'
p2203
tp2204
sS'2080S0012X'
p2205
(S'Pediatrics'
p2206
S'Sleep Medicine'
p2207
tp2208
sS'2865X1600X'
p2209
(S'Military Hospital'
p2210
S'Military General Acute Care Hospital. Operational (Transportable)'
p2211
tp2212
sS'363LX0001X'
p2213
(S'Nurse Practitioner'
p2214
S'Obstetrics & Gynecology'
p2215
tp2216
sS'3336M0002X'
p2217
(S'Pharmacy'
p2218
S'Mail Order Pharmacy'
p2219
tp2220
sS'364SP0812X'
p2221
(S'Clinical Nurse Specialist'
p2222
S'Psych/Mental Health, Community'
p2223
tp2224
sS'364SP1700X'
p2225
(S'Clinical Nurse Specialist'
p2226
S'Perinatal'
p2227
tp2228
sS'261QB0400X'
p2229
(S'Clinic/Center'
p2230
S'Birthing'
p2231
tp2232
sS'133V00000X'
p2233
(S'Dietitian, Registered'
p2234
g3
tp2235
sS'101YP1600X'
p2236
(S'Counselor'
p2237
S'Pastoral'
p2238
tp2239
sS'2471S1302X'
p2240
(S'Radiologic Technologist'
p2241
S'Sonography'
p2242
tp2243
sS'207RS0012X'
p2244
(S'Internal Medicine'
p2245
S'Sleep Medicine'
p2246
tp2247
sS'146L00000X'
p2248
(S'Emergency Medical Technician, Paramedic'
p2249
g3
tp2250
sS'101YS0200X'
p2251
(S'Counselor'
p2252
S'School'
p2253
tp2254
sS'163WC2100X'
p2255
(S'Registered Nurse'
p2256
S'Continence Care'
p2257
tp2258
sS'246QL0900X'
p2259
(S'Spec/Tech, Pathology'
p2260
S'Laboratory Management'
p2261
tp2262
sS'364SI0800X'
p2263
(S'Clinical Nurse Specialist'
p2264
S'Informatics'
p2265
tp2266
sS'225XG0600X'
p2267
(S'Occupational Therapist'
p2268
S'Gerontology'
p2269
tp2270
sS'246XC2903X'
p2271
(S'Spec/Tech, Cardiovascular'
p2272
S'Vascular Specialist'
p2273
tp2274
sS'2251H1300X'
p2275
(S'Physical Therapist'
p2276
S'Human Factors'
p2277
tp2278
sS'2085D0003X'
p2279
(S'Radiology'
p2280
S'Diagnostic Neuroimaging'
p2281
tp2282
sS'2080P0204X'
p2283
(S'Pediatrics'
p2284
S'Pediatric Emergency Medicine'
p2285
tp2286
sS'2084P2900X'
p2287
(S'Psychiatry & Neurology'
p2288
S'Pain Medicine'
p2289
tp2290
sS'207VX0000X'
p2291
(S'Obstetrics & Gynecology'
p2292
S'Obstetrics'
p2293
tp2294
sS'363LP0222X'
p2295
(S'Nurse Practitioner'
p2296
S'Pediatrics, Critical Care'
p2297
tp2298
sS'111NR0200X'
p2299
(S'Chiropractor'
p2300
S'Radiology'
p2301
tp2302
sS'207QH0002X'
p2303
(S'Family Medicine'
p2304
S'Hospice and Palliative Medicine'
p2305
tp2306
sS'111NN0400X'
p2307
(S'Chiropractor'
p2308
S'Neurology'
p2309
tp2310
sS'364SC1501X'
p2311
(S'Clinical Nurse Specialist'
p2312
S'Community Health/Public Health'
p2313
tp2314
sS'224ZL0004X'
p2315
(S'Occupational Therapy Assistant'
p2316
S'Low Vision'
p2317
tp2318
sS'261QM2800X'
p2319
(S'Clinic/Center'
p2320
S'Methadone Clinic'
p2321
tp2322
sS'2085R0204X'
p2323
(S'Radiology'
p2324
S'Vascular & Interventional Radiology'
p2325
tp2326
sS'174N00000X'
p2327
(S'Lactation Consultant, Non-RN'
p2328
g3
tp2329
sS'332900000X'
p2330
(S'Non-Pharmacy Dispensing Site'
p2331
g3
tp2332
sS'132700000X'
p2333
(S'Dietary Manager'
p2334
g3
tp2335
sS'2472R0900X'
p2336
(S'Technician, Other'
p2337
S'Renal Dialysis'
p2338
tp2339
sS'311500000X'
p2340
(S'Alzheimer Center (Dementia Center)'
p2341
g3
tp2342
sS'207SG0202X'
p2343
(S'Medical Genetics'
p2344
S'Clinical Biochemical Genetics'
p2345
tp2346
sS'2081S0010X'
p2347
(S'Physical Medicine & Rehabilitation'
p2348
S'Sports Medicine'
p2349
tp2350
sS'163WD1100X'
p2351
(S'Registered Nurse'
p2352
S'Dialysis, Peritoneal'
p2353
tp2354
sS'364SX0200X'
p2355
(S'Clinical Nurse Specialist'
p2356
S'Oncology'
p2357
tp2358
sS'225CX0006X'
p2359
(S'Rehabilitation Counselor'
p2360
S'Orientation and Mobility Training Provider'
p2361
tp2362
sS'261QM1200X'
p2363
(S'Clinic/Center'
p2364
S'Magnetic Resonance Imaging (MRI)'
p2365
tp2366
sS'261QG0250X'
p2367
(S'Clinic/Center'
p2368
S'Genetics'
p2369
tp2370
sS'175F00000X'
p2371
(S'Naturopath'
p2372
g3
tp2373
sS'163WS0121X'
p2374
(S'Registered Nurse'
p2375
S'Plastic Surgery'
p2376
tp2377
sS'103TC1900X'
p2378
(S'Psychologist'
p2379
S'Counseling'
p2380
tp2381
sS'2472D0500X'
p2382
(S'Technician, Other'
p2383
S'Darkroom'
p2384
tp2385
sS'313M00000X'
p2386
(S'Nursing Facility/Intermediate Care Facility'
p2387
g3
tp2388
sS'390200000X'
p2389
(S'Student in an Organized Health Care Education/Training Program'
p2390
g3
tp2391
sS'2471C1101X'
p2392
(S'Radiologic Technologist'
p2393
S'Cardiovascular-Interventional Technology'
p2394
tp2395
sS'163WR0006X'
p2396
(S'Registered Nurse'
p2397
S'Registered Nurse First Assistant'
p2398
tp2399
sS'246ZG1000X'
p2400
(S'Specialist/Technologist, Other'
p2401
S'Geneticist, Medical (PhD)'
p2402
tp2403
sS'208M00000X'
p2404
(S'Hospitalist'
p2405
g3
tp2406
sS'1223D0001X'
p2407
(S'Dentist'
p2408
S'Dental Public Health'
p2409
tp2410
sS'251300000X'
p2411
(S'Local Education Agency (LEA)'
p2412
g3
tp2413
sS'364SP0811X'
p2414
(S'Clinical Nurse Specialist'
p2415
S'Psych/Mental Health, Chronically Ill'
p2416
tp2417
sS'320800000X'
p2418
(S'Community Based Residential Treatment Facility, Mental Illness'
p2419
g3
tp2420
sS'103TB0200X'
p2421
(S'Psychologist'
p2422
S'Cognitive & Behavioral'
p2423
tp2424
sS'207ZM0300X'
p2425
(S'Pathology'
p2426
S'Medical Microbiology'
p2427
tp2428
sS'213ER0200X'
p2429
(S'Podiatrist'
p2430
S'Radiology'
p2431
tp2432
sS'152W00000X'
p2433
(S'Optometrist'
p2434
g3
tp2435
sS'273R00000X'
p2436
(S'Psychiatric Unit'
p2437
g3
tp2438
sS'2355S0801X'
p2439
(S'Specialist/Technologist'
p2440
S'Speech-Language Assistant'
p2441
tp2442
sS'2085R0001X'
p2443
(S'Radiology'
p2444
S'Radiation Oncology'
p2445
tp2446
sS'163WA0400X'
p2447
(S'Registered Nurse'
p2448
S'Addiction (Substance Use Disorder)'
p2449
tp2450
sS'103GC0700X'
p2451
(S'Clinical Neuropsychologist'
p2452
S'Clinical'
p2453
tp2454
sS'364SP0808X'
p2455
(S'Clinical Nurse Specialist'
p2456
S'Psych/Mental Health'
p2457
tp2458
sS'207KI0005X'
p2459
(S'Allergy & Immunology'
p2460
S'Clinical & Laboratory Immunology'
p2461
tp2462
sS'207PT0002X'
p2463
(S'Emergency Medicine'
p2464
S'Medical Toxicology'
p2465
tp2466
sS'2080P0201X'
p2467
(S'Pediatrics'
p2468
S'Pediatric Allergy/Immunology'
p2469
tp2470
sS'163WC1600X'
p2471
(S'Registered Nurse'
p2472
S'Continuing Education/Staff Development'
p2473
tp2474
sS'174V00000X'
p2475
(S'Clinical Ethicist'
p2476
g3
tp2477
sS'171WH0202X'
p2478
(S'Contractor'
p2479
S'Home Modifications'
p2480
tp2481
sS'111NX0100X'
p2482
(S'Chiropractor'
p2483
S'Occupational Health'
p2484
tp2485
sS'261QM2500X'
p2486
(S'Clinic/Center'
p2487
S'Medical Specialty'
p2488
tp2489
sS'207RG0100X'
p2490
(S'Internal Medicine'
p2491
S'Gastroenterology'
p2492
tp2493
sS'305R00000X'
p2494
(S'Preferred Provider Organization'
p2495
g3
tp2496
sS'332100000X'
p2497
(S'Department of Veterans Affairs (VA) Pharmacy'
p2498
g3
tp2499
sS'225700000X'
p2500
(S'Massage Therapist'
p2501
g3
tp2502
sS'2279G1100X'
p2503
(S'Respiratory Therapist, Registered'
p2504
S'General Care'
p2505
tp2506
sS'311Z00000X'
p2507
(S'Custodial Care Facility'
p2508
g3
tp2509
sS'1744G0900X'
p2510
(S'Specialist'
p2511
S'Graphics Designer'
p2512
tp2513
sS'2086X0206X'
p2514
(S'Surgery'
p2515
S'Surgical Oncology'
p2516
tp2517
sS'202K00000X'
p2518
(S'Phlebology'
p2519
g3
tp2520
sS'246YR1600X'
p2521
(S'Spec/Tech, Health Info'
p2522
S'Registered Record Administrator'
p2523
tp2524
sS'246ZC0007X'
p2525
(S'Specialist/Technologist, Other'
p2526
S'Certified First Assistant'
p2527
tp2528
sS'261QC1500X'
p2529
(S'Clinic/Center'
p2530
S'Community Health'
p2531
tp2532
sS'347E00000X'
p2533
(S'Transportation Broker'
p2534
g3
tp2535
sS'163WH1000X'
p2536
(S'Registered Nurse'
p2537
S'Hospice'
p2538
tp2539
sS'314000000X'
p2540
(S'Skilled Nursing Facility'
p2541
g3
tp2542
sS'2080H0002X'
p2543
(S'Pediatrics'
p2544
S'Hospice and Palliative Medicine'
p2545
tp2546
sS'261QP0905X'
p2547
(S'Clinic/Center'
p2548
S'Public Health, State or Local'
p2549
tp2550
sS'283XC2000X'
p2551
(S'Rehabilitation Hospital'
p2552
S'Children'
p2553
tp2554
sS'152WC0802X'
p2555
(S'Optometrist'
p2556
S'Corneal and Contact Management'
p2557
tp2558
sS'261QM0801X'
p2559
(S'Clinic/Center'
p2560
S'Mental Health (Including Community Mental Health Center)'
p2561
tp2562
sS'163WH0200X'
p2563
(S'Registered Nurse'
p2564
S'Home Health'
p2565
tp2566
sS'152WX0102X'
p2567
(S'Optometrist'
p2568
S'Occupational Vision'
p2569
tp2570
sS'163WR1000X'
p2571
(S'Registered Nurse'
p2572
S'Reproductive Endocrinology/Infertility'
p2573
tp2574
sS'163WM1400X'
p2575
(S'Registered Nurse'
p2576
S'Nurse Massage Therapist (NMT)'
p2577
tp2578
sS'213EP0504X'
p2579
(S'Podiatrist'
p2580
S'Public Medicine'
p2581
tp2582
sS'341800000X'
p2583
(S'Military/U.S. Coast Guard Transport'
p2584
g3
tp2585
sS'152WP0200X'
p2586
(S'Optometrist'
p2587
S'Pediatrics'
p2588
tp2589
sS'3336C0004X'
p2590
(S'Pharmacy'
p2591
S'Compounding Pharmacy'
p2592
tp2593
sS'281PC2000X'
p2594
(S'Chronic Disease Hospital'
p2595
S'Children'
p2596
tp2597
sS'282NR1301X'
p2598
(S'General Acute Care Hospital'
p2599
S'Rural'
p2600
tp2601
sS'225XF0002X'
p2602
(S'Occupational Therapist'
p2603
S'Feeding, Eating & Swallowing'
p2604
tp2605
sS'207VM0101X'
p2606
(S'Obstetrics & Gynecology'
p2607
S'Maternal & Fetal Medicine'
p2608
tp2609
sS'225X00000X'
p2610
(S'Occupational Therapist'
p2611
g3
tp2612
sS'103K00000X'
p2613
(S'Behavioral Analyst'
p2614
g3
tp2615
sS'347B00000X'
p2616
(S'Bus'
p2617
g3
tp2618
sS'251J00000X'
p2619
(S'Nursing Care'
p2620
g3
tp2621
sS'207UN0903X'
p2622
(S'Nuclear Medicine'
p2623
S'In Vivo & In Vitro Nuclear Medicine'
p2624
tp2625
sS'225400000X'
p2626
(S'Rehabilitation Practitioner'
p2627
g3
tp2628
sS'2255R0406X'
p2629
(S'Specialist/Technologist'
p2630
S'Rehabilitation, Blind'
p2631
tp2632
sS'207VE0102X'
p2633
(S'Obstetrics & Gynecology'
p2634
S'Reproductive Endocrinology'
p2635
tp2636
sS'2279P4000X'
p2637
(S'Respiratory Therapist, Registered'
p2638
S'Patient Transport'
p2639
tp2640
sS'2471C3401X'
p2641
(S'Radiologic Technologist'
p2642
S'Computed Tomography'
p2643
tp2644
sS'323P00000X'
p2645
(S'Psychiatric Residential Treatment Facility'
p2646
g3
tp2647
sS'261QD1600X'
p2648
(S'Clinic/Center'
p2649
S'Developmental Disabilities'
p2650
tp2651
sS'2080P0216X'
p2652
(S'Pediatrics'
p2653
S'Pediatric Rheumatology'
p2654
tp2655
sS'2084N0008X'
p2656
(S'Psychiatry & Neurology'
p2657
S'Neuromuscular Medicine'
p2658
tp2659
sS'2471B0102X'
p2660
(S'Radiologic Technologist'
p2661
S'Bone Densitometry'
p2662
tp2663
sS'207ZF0201X'
p2664
(S'Pathology'
p2665
S'Forensic Pathology'
p2666
tp2667
sS'101YP2500X'
p2668
(S'Counselor'
p2669
S'Professional'
p2670
tp2671
sS'224ZF0002X'
p2672
(S'Occupational Therapy Assistant'
p2673
S'Feeding, Eating & Swallowing'
p2674
tp2675
sS'207P00000X'
p2676
(S'Emergency Medicine'
p2677
g3
tp2678
sS'251E00000X'
p2679
(S'Home Health'
p2680
g3
tp2681
sS'2278P1006X'
p2682
(S'Respiratory Therapist, Certified'
p2683
S'Pulmonary Function Technologist'
p2684
tp2685
sS'372500000X'
p2686
(S'Chore Provider'
p2687
g3
tp2688
sS'176P00000X'
p2689
(S'Funeral Director'
p2690
g3
tp2691
sS'122300000X'
p2692
(S'Dentist'
p2693
g3
tp2694
sS'2472B0301X'
p2695
(S'Technician, Other'
p2696
S'Biomedical Engineering'
p2697
tp2698
sS'102L00000X'
p2699
(S'Psychoanalyst'
p2700
g3
tp2701
sS'156FX1101X'
p2702
(S'Technician/Technologist'
p2703
S'Ophthalmic Assistant'
p2704
tp2705
sS'3747P1801X'
p2706
(S'Technician'
p2707
S'Personal Care Attendant'
p2708
tp2709
sS'207VH0002X'
p2710
(S'Obstetrics & Gynecology'
p2711
S'Hospice and Palliative Medicine'
p2712
tp2713
sS'207NI0002X'
p2714
(S'Dermatology'
p2715
S'Clinical & Laboratory Dermatological Immunology'
p2716
tp2717
sS'207ZP0105X'
p2718
(S'Pathology'
p2719
S'Clinical Pathology/Laboratory Medicine'
p2720
tp2721
sS'1223P0300X'
p2722
(S'Dentist'
p2723
S'Periodontics'
p2724
tp2725
sS'104100000X'
p2726
(S'Social Worker'
p2727
g3
tp2728
sS'163WL0100X'
p2729
(S'Registered Nurse'
p2730
S'Lactation Consultant'
p2731
tp2732
sS'208800000X'
p2733
(S'Urology'
p2734
g3
tp2735
sS'1744R1102X'
p2736
(S'Specialist'
p2737
S'Research Study'
p2738
tp2739
sS'225XE1200X'
p2740
(S'Occupational Therapist'
p2741
S'Ergonomics'
p2742
tp2743
sS'261QA0900X'
p2744
(S'Clinic/Center'
p2745
S'Amputee'
p2746
tp2747
sS'2278H0200X'
p2748
(S'Respiratory Therapist, Certified'
p2749
S'Home Health'
p2750
tp2751
sS'103TM1800X'
p2752
(S'Psychologist'
p2753
S'Mental Retardation & Developmental Disabilities'
p2754
tp2755
sS'332BN1400X'
p2756
(S'Durable Medical Equipment & Medical Supplies'
p2757
S'Nursing Facility Supplies'
p2758
tp2759
sS'2278P3900X'
p2760
(S'Respiratory Therapist, Certified'
p2761
S'Neonatal/Pediatrics'
p2762
tp2763
sS'246YC3301X'
p2764
(S'Spec/Tech, Health Info'
p2765
S'Coding Specialist, Hospital Based'
p2766
tp2767
sS'246W00000X'
p2768
(S'Technician, Cardiology'
p2769
g3
tp2770
sS'251F00000X'
p2771
(S'Home Infusion'
p2772
g3
tp2773
sS'364SP0810X'
p2774
(S'Clinical Nurse Specialist'
p2775
S'Psych/Mental Health, Child & Family'
p2776
tp2777
sS'207NP0225X'
p2778
(S'Dermatology'
p2779
S'Pediatric Dermatology'
p2780
tp2781
sS'261QF0400X'
p2782
(S'Clinic/Center'
p2783
S'Federally Qualified Health Center (FQHC)'
p2784
tp2785
sS'2279E0002X'
p2786
(S'Respiratory Therapist, Registered'
p2787
S'Emergency Care'
p2788
tp2789
sS'207RC0200X'
p2790
(S'Internal Medicine'
p2791
S'Critical Care Medicine'
p2792
tp2793
sS'225000000X'
p2794
(S'Orthotic Fitter'
p2795
g3
tp2796
sS'237700000X'
p2797
(S'Hearing Instrument Specialist'
p2798
g3
tp2799
sS'364SC0200X'
p2800
(S'Clinical Nurse Specialist'
p2801
S'Critical Care Medicine'
p2802
tp2803
sS'246ZB0600X'
p2804
(S'Specialist/Technologist, Other'
p2805
S'Biostatistician'
p2806
tp2807
sS'2084N0400X'
p2808
(S'Psychiatry & Neurology'
p2809
S'Neurology'
p2810
tp2811
sS'163WI0600X'
p2812
(S'Registered Nurse'
p2813
S'Infection Control'
p2814
tp2815
sS'363LP0200X'
p2816
(S'Nurse Practitioner'
p2817
S'Pediatrics'
p2818
tp2819
sS'209800000X'
p2820
(S'Legal Medicine'
p2821
g3
tp2822
sS'292200000X'
p2823
(S'Dental Laboratory'
p2824
g3
tp2825
sS'373H00000X'
p2826
(S'Day Training/Habilitation Specialist'
p2827
g3
tp2828
sS'1835P0018X'
p2829
(S'Pharmacist'
p2830
S'Pharmacist Clinician (PhC)/ Clinical Pharmacy Specialist'
p2831
tp2832
sS'207QA0505X'
p2833
(S'Family Medicine'
p2834
S'Adult Medicine'
p2835
tp2836
sS'2082S0099X'
p2837
(S'Plastic Surgery'
p2838
S'Plastic Surgery Within the Head and Neck'
p2839
tp2840
sS'364SR0400X'
p2841
(S'Clinical Nurse Specialist'
p2842
S'Rehabilitation'
p2843
tp2844
sS'364SF0001X'
p2845
(S'Clinical Nurse Specialist'
p2846
S'Family Health'
p2847
tp2848
sS'1835G0303X'
p2849
(S'Pharmacist'
p2850
S'Geriatric'
p2851
tp2852
sS'261QU0200X'
p2853
(S'Clinic/Center'
p2854
S'Urgent Care'
p2855
tp2856
sS'363L00000X'
p2857
(S'Nurse Practitioner'
p2858
g3
tp2859
sS'3336M0003X'
p2860
(S'Pharmacy'
p2861
S'Managed Care Organization Pharmacy'
p2862
tp2863
sS'133VN1004X'
p2864
(S'Dietitian, Registered'
p2865
S'Nutrition, Pediatric'
p2866
tp2867
sS'367500000X'
p2868
(S'Nurse Anesthetist, Certified Registered'
p2869
g3
tp2870
sS'103T00000X'
p2871
(S'Psychologist'
p2872
g3
tp2873
sS'207L00000X'
p2874
(S'Anesthesiology'
p2875
g3
tp2876
sS'163WS0200X'
p2877
(S'Registered Nurse'
p2878
S'School'
p2879
tp2880
sS'364SP0807X'
p2881
(S'Clinical Nurse Specialist'
p2882
S'Psych/Mental Health, Child & Adolescent'
p2883
tp2884
sS'2085U0001X'
p2885
(S'Radiology'
p2886
S'Diagnostic Ultrasound'
p2887
tp2888
sS'207QG0300X'
p2889
(S'Family Medicine'
p2890
S'Geriatric Medicine'
p2891
tp2892
sS'3416L0300X'
p2893
(S'Ambulance'
p2894
S'Land Transport'
p2895
tp2896
sS'164W00000X'
p2897
(S'Licensed Practical Nurse'
p2898
g3
tp2899
sS'1710I1003X'
p2900
(S'Military Health Care Provider'
p2901
S'Independent Duty Medical Technicians'
p2902
tp2903
sS'207LP3000X'
p2904
(S'Anesthesiology'
p2905
S'Pediatric Anesthesiology'
p2906
tp2907
sS'2084S0010X'
p2908
(S'Psychiatry & Neurology'
p2909
S'Sports Medicine'
p2910
tp2911
sS'174400000X'
p2912
(S'Specialist'
p2913
g3
tp2914
sS'231H00000X'
p2915
(S'Audiologist'
p2916
g3
tp2917
sS'231HA2500X'
p2918
(S'Audiologist'
p2919
S'Assistive Technology Supplier'
p2920
tp2921
sS'247ZC0005X'
p2922
(S'Pathology'
p2923
S'Clinical Laboratory Director, Non-physician'
p2924
tp2925
sS'2251X0800X'
p2926
(S'Physical Therapist'
p2927
S'Orthopedic'
p2928
tp2929
sS'183500000X'
p2930
(S'Pharmacist'
p2931
g3
tp2932
sS'363LC1500X'
p2933
(S'Nurse Practitioner'
p2934
S'Community Health'
p2935
tp2936
sS'101Y00000X'
p2937
(S'Counselor'
p2938
g3
tp2939
sS'2251S0007X'
p2940
(S'Physical Therapist'
p2941
S'Sports'
p2942
tp2943
sS'246QL0901X'
p2944
(S'Spec/Tech, Pathology'
p2945
S'Laboratory Management, Diplomate'
p2946
tp2947
sS'364SE0003X'
p2948
(S'Clinical Nurse Specialist'
p2949
S'Emergency'
p2950
tp2951
sS'2080P0205X'
p2952
(S'Pediatrics'
p2953
S'Pediatric Endocrinology'
p2954
tp2955
sS'2355A2700X'
p2956
(S'Specialist/Technologist'
p2957
S'Audiology Assistant'
p2958
tp2959
sS'163WG0600X'
p2960
(S'Registered Nurse'
p2961
S'Gerontology'
p2962
tp2963
sS'246QM0900X'
p2964
(S'Spec/Tech, Pathology'
p2965
S'Microbiology'
p2966
tp2967
sS'207X00000X'
p2968
(S'Orthopaedic Surgery'
p2969
g3
tp2970
sS'170100000X'
p2971
(S'Medical Genetics, Ph.D. Medical Genetics'
p2972
g3
tp2973
sS'261QE0002X'
p2974
(S'Clinic/Center'
p2975
S'Emergency Care'
p2976
tp2977
sS'222Z00000X'
p2978
(S'Orthotist'
p2979
g3
tp2980
sS'3418M1120X'
p2981
(S'Military/U.S. Coast Guard Transport'
p2982
S'Military or U.S. Coast Guard Ambulance, Air Transport'
p2983
tp2984
sS'2279E1000X'
p2985
(S'Respiratory Therapist, Registered'
p2986
S'Educational'
p2987
tp2988
sS'2086S0120X'
p2989
(S'Surgery'
p2990
S'Pediatric Surgery'
p2991
tp2992
sS'1744P3200X'
p2993
(S'Specialist'
p2994
S'Prosthetics Case Management'
p2995
tp2996
sS'3336H0001X'
p2997
(S'Pharmacy'
p2998
S'Home Infusion Therapy Pharmacy'
p2999
tp3000
sS'2865C1500X'
p3001
(S'Military Hospital'
p3002
S'Community Health'
p3003
tp3004
sS'261QM1300X'
p3005
(S'Clinic/Center'
p3006
S'Multi-Specialty'
p3007
tp3008
sS'374U00000X'
p3009
(S'Home Health Aide'
p3010
g3
tp3011
sS'2251P0200X'
p3012
(S'Physical Therapist'
p3013
S'Pediatrics'
p3014
tp3015
sS'364SM0705X'
p3016
(S'Clinical Nurse Specialist'
p3017
S'Medical-Surgical'
p3018
tp3019
sS'103TH0100X'
p3020
(S'Psychologist'
p3021
S'Health Service'
p3022
tp3023
sS'171WV0202X'
p3024
(S'Contractor'
p3025
S'Vehicle Modifications'
p3026
tp3027
sS'207SG0201X'
p3028
(S'Medical Genetics'
p3029
S'Clinical Genetics (M.D.)'
p3030
tp3031
sS'246Q00000X'
p3032
(S'Spec/Tech, Pathology'
p3033
g3
tp3034
sS'225XM0800X'
p3035
(S'Occupational Therapist'
p3036
S'Mental Health'
p3037
tp3038
sS'207ZH0000X'
p3039
(S'Pathology'
p3040
S'Hematology'
p3041
tp3042
sS'103TE1100X'
p3043
(S'Psychologist'
p3044
S'Exercise & Sports'
p3045
tp3046
sS'125J00000X'
p3047
(S'Dental Therapist'
p3048
g3
tp3049
sS'374J00000X'
p3050
(S'Doula'
p3051
g3
tp3052
sS'2080I0007X'
p3053
(S'Pediatrics'
p3054
S'Clinical & Laboratory Immunology'
p3055
tp3056
sS'225XL0004X'
p3057
(S'Occupational Therapist'
p3058
S'Low Vision'
p3059
tp3060
sS'2472E0500X'
p3061
(S'Technician, Other'
p3062
S'EEG'
p3063
tp3064
sS'176B00000X'
p3065
(S'Midwife'
p3066
g3
tp3067
sS'2865M2000X'
p3068
(S'Military Hospital'
p3069
S'Military General Acute Care Hospital'
p3070
tp3071
sS'163WX0002X'
p3072
(S'Registered Nurse'
p3073
S'Obstetric, High-Risk'
p3074
tp3075
sS'172M00000X'
p3076
(S'Mechanotherapist'
p3077
g3
tp3078
sS'207RH0000X'
p3079
(S'Internal Medicine'
p3080
S'Hematology'
p3081
tp3082
s.